(dp0
I1
(dp1
S'undoIndicator'
p2
(lp3
I0
aI0
aI0
aI0
aI0
aI0
aI0
aI1
aI0
aI1
aI0
aI0
aI0
asS'logs'
p4
(lp5
(cdatetime
time
p6
(S'\x00\x08\x1a\x00\x00\x00'
p7
tp8
Rp9
S'GO1'
p10
((lp11
(I123
I131
tp12
a(I156
I177
tp13
a(lp14
F0.5416531989138141
aF0.8162584467901346
aF0.2701979425445704
aF0.985278117610578
aF0.8458012923806661
aF0.002702621090383217
aF0.7361937434681098
aF0.3811167281935308
aF0.5297716904673602
aF0.4437494091389268
aF0.32986284520349607
aF0.37090372210148215
aF0.06787315155837981
aF0.7913018288453482
aF0.6175500947665694
aF0.9949429748765022
aF0.27537074788648164
aF0.056624771229666804
aF0.46730190652288484
aF0.7352644222203056
aF0.6917356773778179
aF0.0808874961569569
aF0.33294362443873793
atp15
tp16
a(g6
(S'\x00\x08\x1b\x00\x00\x00'
p17
tp18
Rp19
S'DF1'
p20
(lp21
F0.8773810206309346
aF0.578632029710511
aF0.9969590425432222
aF0.6478781773650742
aF0.9805663077025419
aF0.3667263011638139
aF0.6376734152012309
aF0.9572423663101862
aF0.5744130068512133
aF0.038868492399907084
aF0.5760964887157821
aF0.7758977255800219
aF0.6310244979915791
aF0.7650578356217302
aF0.9392000545399743
aF0.27696945460777034
aF0.7161185899628674
aF0.25956538149875596
aF0.8879431901331762
aF0.34959109074446126
aF0.34963031309261006
aF0.21628624394600637
aF0.5527476206202366
atp22
a(g6
(S'\x00\x08\x1f\x00\x00\x00'
p23
tp24
Rp25
g10
((lp26
g12
ag13
a(lp27
F0.0002708166914076049
aF0.603092465373942
aF0.616048093591248
aF0.4682875069662542
aF0.7853446588760856
aF0.5523808290819304
aF0.1513717869859329
aF0.35119297392895477
aF0.4677146490700578
aF0.5797746141178161
aF0.3706836905329951
aF0.4084174597932607
aF0.07736548207144667
aF0.20451764596563937
aF0.9289115837176882
aF0.15203771633285024
aF0.7769897879426262
aF0.7443930326576761
aF0.970156629875661
aF0.14803763741095743
aF0.44099273365128744
aF0.7030085419449419
aF0.6703244192192925
atp28
tp29
a(g6
(S'\x00\x08 \x00\x00\x00'
p30
tp31
Rp32
g20
(lp33
F0.7891302651229661
aF0.3534959270592646
aF0.6113421428286483
aF0.8316111472060963
aF0.23688062720007752
aF0.8956562587054975
aF0.5394405113999473
aF0.5336487153998615
aF0.5619799611801244
aF0.5047414884185132
aF0.6603513561452395
aF0.7489548776240574
aF0.618439756730052
aF0.0059097325203016915
aF0.4374436961980419
aF0.38736791786139246
aF0.37477528543880034
aF0.6372483183239106
aF0.7199629717619229
aF0.592899220677514
aF0.18227983654579571
aF0.3754801926833996
aF0.40472223074259484
atp34
a(g6
(S'\x00\x08$\x00\x00\x00'
p35
tp36
Rp37
g10
((lp38
g12
ag13
a(lp39
F0.62103954920502
aF0.6299127673879229
aF0.06408195455137544
aF0.31093072707525493
aF0.2958032604109938
aF0.4200549389492624
aF0.21943684531498486
aF0.03371182839737619
aF0.5961782865684814
aF0.17730899520050514
aF0.6512305636367738
aF0.0996608235198363
aF0.13780901448748006
aF0.8738210035312599
aF0.669801781496034
aF0.9309525379981199
aF0.4841278979910484
aF0.6632205266727045
aF0.002396771538873743
aF0.9181141773168114
aF0.5002864063371221
aF0.6038239600748198
aF0.16577788429254015
atp40
tp41
a(g6
(S'\x00\x08%\x00\x00\x00'
p42
tp43
Rp44
g20
(lp45
F0.46879654121585124
aF0.06291682850865676
aF0.2376172764420008
aF0.5088351725377332
aF0.450245654243017
aF0.840683780836056
aF0.5475055732605625
aF0.6193540705206465
aF0.5728580827425999
aF0.1850377933649756
aF0.13415107198221954
aF0.05890236833679163
aF0.22842297063150885
aF0.6190296816677574
aF0.5250517048435063
aF0.589740429930579
aF0.6583150605433713
aF0.8402897438664965
aF0.7740635107462643
aF0.19317927311480476
aF0.1851192655636157
aF0.02916178924315338
aF0.41266310683811946
atp46
a(g6
(S'\x00\x08)\x00\x00\x00'
p47
tp48
Rp49
g10
((lp50
g12
ag13
a(lp51
F0.7437584907019988
aF0.9089311207562399
aF0.2530577534710049
aF0.932126194025775
aF0.8513527175230696
aF0.11787503351773265
aF0.07994943703217039
aF0.7395902314016961
aF0.8384199415113807
aF0.8184212028508012
aF0.05313165816314647
aF0.7639790712053983
aF0.4071381364515697
aF0.2977332462867831
aF0.7954125264893045
aF0.03499447840804759
aF0.018260032293536788
aF0.13238121138141123
aF0.03703523685368837
aF0.9151300590035045
aF0.33629393561178966
aF0.34618854948501887
aF0.32760500308793084
atp52
tp53
a(g6
(S'\x00\x08*\x00\x00\x00'
p54
tp55
Rp56
g20
(lp57
F0.8866024206070641
aF0.8279664687144276
aF0.5412694028765739
aF0.4079627305824517
aF0.8165561128619263
aF0.5325295345930383
aF0.539756089609259
aF0.20572402540135748
aF0.47047396289562093
aF0.6339099778487237
aF0.7177593989029125
aF0.6018510765731271
aF0.543680696617744
aF0.44136499770877924
aF0.9637674321567857
aF0.6044172895305435
aF0.8216613149857205
aF0.40109099890061506
aF0.8484188338559077
aF0.2319579588322317
aF0.44816791397762545
aF0.2939352347672247
aF0.9123812091431801
atp58
a(g6
(S'\x00\x08.\x00\x00\x00'
p59
tp60
Rp61
g10
((lp62
g12
ag13
a(lp63
F0.6521410710757387
aF0.024600910292313705
aF0.7905212193028708
aF0.07367525775491712
aF0.15927356909487222
aF0.17488318098939948
aF0.8011499273849212
aF0.18558591103120592
aF0.6714677292008956
aF0.6979553243096046
aF0.9100914942860248
aF0.023802040032732452
aF0.8895322563918749
aF0.3424035593059592
aF0.7655953331186117
aF0.19438426866938685
aF0.7012850790918077
aF0.3729825769035815
aF0.6198912124131505
aF0.3128081333067704
aF0.28385239264481277
aF0.8400216203868219
aF0.664724237586521
atp64
tp65
a(g6
(S'\x00\x08/\x00\x00\x00'
p66
tp67
Rp68
g20
(lp69
F0.5221939021757568
aF0.508030554763619
aF0.9176816707745006
aF0.0044372931550829
aF0.8889747501192534
aF0.936656654029047
aF0.883869817918268
aF0.538483829510197
aF0.8293614771190313
aF0.09999121584861337
aF0.5078730477971755
aF0.6550731307871117
aF0.34793134852525176
aF0.4036785117261291
aF0.19167176405680153
aF0.6465445275619593
aF0.036591639195949655
aF0.42980291013284777
aF0.8206912783889072
aF0.4182329688680164
aF0.2964502035334615
aF0.6936025622046451
aF0.7810141284075597
atp70
a(g6
(S'\x00\x083\x00\x00\x00'
p71
tp72
Rp73
g10
((lp74
g12
ag13
a(lp75
F0.7509712049591217
aF0.5886266779216245
aF0.9136804133466444
aF0.774427581693933
aF0.4551304448012431
aF0.9965527228921082
aF0.8348954739543563
aF0.05669005826687035
aF0.8522035748237099
aF0.32378934464170916
aF0.07380021218838229
aF0.8442416946252167
aF0.09208573750731064
aF0.5693063317274515
aF0.3936154058981395
aF0.7563950789899591
aF0.1936728205838727
aF0.32761315878136854
aF0.7372759648053538
aF0.5614115569485395
aF0.2558648675704268
aF0.880051382573648
aF0.42430376105261036
atp76
tp77
a(g6
(S'\x00\x084\x00\x00\x00'
p78
tp79
Rp80
g20
(lp81
F0.9243936997607333
aF0.3879591635345174
aF0.7648104599442255
aF0.45390939667970454
aF0.340026872688315
aF0.14747154912015947
aF0.49877811727882904
aF0.2332083365524127
aF0.5238157322700743
aF0.32903860887479697
aF0.57468015664386
aF0.6581022021772794
aF0.23986059748397692
aF0.5937486708112124
aF0.591552207441221
aF0.6175342036939211
aF0.33999369194231854
aF0.34403749094886693
aF0.19206771003117662
aF0.22216619997652265
aF0.6942272656944721
aF0.392663919957727
aF0.5056882860765131
atp82
a(g6
(S'\x00\x088\x00\x00\x00'
p83
tp84
Rp85
g10
((lp86
g12
ag13
a(lp87
F0.3154328716247965
aF0.9954500882988454
aF0.5686033768414355
aF0.8970383589411547
aF0.6550323777314633
aF0.0843163855012603
aF0.7509619534846143
aF0.22674772655962228
aF0.7440886046249935
aF0.46955644845548095
aF0.30940315940677154
aF0.10241304741516566
aF0.5797192277228213
aF0.2833913926825039
aF0.5345962402482695
aF0.5981948978392246
aF0.5625698708058138
aF0.8456213961112052
aF0.7467595094946863
aF0.1491858538868598
aF0.8294478865743671
aF0.988432959577558
aF0.41537587605222626
atp88
tp89
a(g6
(S'\x00\x089\x00\x00\x00'
p90
tp91
Rp92
g20
(lp93
F0.28157061804192673
aF0.9421027578613878
aF0.7788924415555627
aF0.38878128441515614
aF0.8691806596251691
aF0.23700703453103222
aF0.20853482099334297
aF0.8446184449982062
aF0.36801497293844143
aF0.08559010722028748
aF0.02704005324281411
aF0.306296805725104
aF0.8413338367261963
aF0.6478535774754871
aF0.7029925865711044
aF0.32352670518344473
aF0.7115229937044492
aF0.7434222761937028
aF0.5596785907119362
aF0.5738966618754473
aF0.9170373581777673
aF0.242910712440911
aF0.3531131631715406
atp94
a(g6
(S'\x00\t\x01\x00\x00\x00'
p95
tp96
Rp97
g10
((lp98
g12
ag13
a(lp99
F0.861601610027989
aF0.7051162493799071
aF0.424849187997666
aF0.442095345688609
aF0.3500743497696922
aF0.06436944133986233
aF0.3849407974146375
aF0.4138548930791187
aF0.9356271779458001
aF0.07525127478850802
aF0.969778551148097
aF0.9906715697501692
aF0.3402808526083022
aF0.9694829260167693
aF0.09458886940203803
aF0.6950524390200054
aF0.337441594375387
aF0.5446178996157277
aF0.3851146377009146
aF0.4182417345701329
aF0.8771008625375545
aF0.8412718082117562
aF0.9034735760960413
atp100
tp101
a(g6
(S'\x00\t\x02\x00\x00\x00'
p102
tp103
Rp104
g20
(lp105
F0.18864597428021956
aF0.9478525390968158
aF0.7610613549099648
aF0.6306679636890634
aF0.573062543174886
aF0.4610200904688273
aF0.788670758121205
aF0.8565055635685463
aF0.7063317068513131
aF0.09153728648495518
aF0.7416343310066998
aF0.49199750981116597
aF0.8327441079537183
aF0.4422301039745701
aF0.32616726592578404
aF0.861692544351045
aF0.11310202910831602
aF0.45506087622895597
aF0.8188383315051331
aF0.2872090594373755
aF0.5357261405009888
aF0.6525255270242588
aF0.8040267204364688
atp106
a(g6
(S'\x00\t\x06\x00\x00\x00'
p107
tp108
Rp109
g10
((lp110
g12
ag13
a(lp111
F0.25015278517101025
aF0.03803097053930049
aF0.41739518728381386
aF0.47142635604592853
aF0.942836664485218
aF0.4603783394057559
aF0.9069017326052561
aF0.675636165141339
aF0.5831715037906144
aF0.16412252926360316
aF0.19161111015450516
aF0.4022449593483818
aF0.7136919929793825
aF0.2503921615722192
aF0.7060076541347922
aF0.9194491758977769
aF0.663200056144421
aF0.800548494246525
aF0.26842047821838
aF0.7993211541108249
aF0.579805202087938
aF0.6956530207901529
aF0.783470118974888
atp112
tp113
a(g6
(S'\x00\t\x07\x00\x00\x00'
p114
tp115
Rp116
g20
(lp117
F0.6686852743166295
aF0.9077713516225481
aF0.5675766294112679
aF0.3472099761870552
aF0.3656675834222576
aF0.7715934657361764
aF0.12464893774390462
aF0.6868977473670851
aF0.7196509016230933
aF0.5090825071126883
aF0.6436593282633001
aF0.877100866597323
aF0.19245892930304032
aF0.8561283538823107
aF0.2048419070147386
aF0.6881113017405979
aF0.6537233986433431
aF0.46950971291941834
aF0.4425008088827227
aF0.6868082081178171
aF0.5966092287004726
aF0.5678188556401849
aF0.3011761972286531
atp118
a(g6
(S'\x00\t\x0b\x00\x00\x00'
p119
tp120
Rp121
g10
((lp122
g12
ag13
a(lp123
F0.49169022731561374
aF0.4407496118942993
aF0.7996254826317335
aF0.39992917659537164
aF0.17324689951902517
aF0.30270637436074754
aF0.8078201594283543
aF0.019766729099522817
aF0.8387689324214734
aF0.7508449428235052
aF0.048821899636233734
aF0.044208266502355986
aF0.24598110200523793
aF0.7447421977597695
aF0.3047546917407523
aF0.3438533294644034
aF0.21663248020381554
aF0.9016063763669596
aF0.49554682953898965
aF0.8461076652645474
aF0.5757158197133538
aF0.9817323324994097
aF0.9841996490882162
atp124
tp125
a(g6
(S'\x00\t\x0c\x00\x00\x00'
p126
tp127
Rp128
g20
(lp129
F0.7313522467079175
aF0.9605339099003982
aF0.21362294153296602
aF0.3685774775882936
aF0.3612723147485065
aF0.4785175360985363
aF0.16262135579180592
aF0.5385116832777697
aF0.7856467079970773
aF0.09658239259500045
aF0.475398591387049
aF0.8852662185271813
aF0.017961526027205466
aF0.9070744198421864
aF0.6414311638309445
aF0.9072163248903357
aF0.06715484500413327
aF0.3669516725611641
aF0.2823580857720287
aF0.15238502377687824
aF0.8860461460232721
aF0.1859207593766813
aF0.21134122934604216
atp130
a(g6
(S'\x00\t\x10\x00\x00\x00'
p131
tp132
Rp133
g10
((lp134
g12
ag13
a(lp135
F0.4155311156741798
aF0.528392085130733
aF0.5922142923513392
aF0.34490925667310335
aF0.08148733193515956
aF0.9403391766971784
aF0.6155029483475123
aF0.5915963592220319
aF0.41847556707602174
aF0.9347769271697065
aF0.23870164957950235
aF0.24201928822641272
aF0.13793105231212155
aF0.8584953950855171
aF0.20152909706757538
aF0.523701918358607
aF0.11382151588170952
aF0.46087517308122006
aF0.7117656848956241
aF0.38409919752500454
aF0.7830337089523807
aF0.8796503400190133
aF0.5430694178603166
atp136
tp137
a(g6
(S'\x00\t\x11\x00\x00\x00'
p138
tp139
Rp140
g20
(lp141
F0.028907874138483836
aF0.9901467223122282
aF0.5867793766747342
aF0.911023488289587
aF0.2984697486379029
aF0.8850436453821912
aF0.9600426427427086
aF0.5649844983311614
aF0.6391981684780342
aF0.0539610891283423
aF0.7436345981562431
aF0.5038466832411903
aF0.7032447399369963
aF0.5755127392812154
aF0.6514602310830083
aF0.8968907249742849
aF0.4969573502886365
aF0.031682289194043034
aF0.9816468516694647
aF0.5785576170822881
aF0.2648870478427041
aF0.9092502011090298
aF0.9580847743288159
atp142
a(g6
(S'\x00\t\x15\x00\x00\x00'
p143
tp144
Rp145
g10
((lp146
g12
ag13
a(lp147
F0.35674967384407263
aF0.21685577470621997
aF0.9970133829735333
aF0.49982884613595
aF0.12826192413105586
aF0.7007214153774041
aF0.2770785102371679
aF0.5815974015978206
aF0.4329648847613006
aF0.3165485848566393
aF0.02430536462091437
aF0.7216945394395025
aF0.4964059004674607
aF0.21020580903319452
aF0.5693873446059335
aF0.2064922015056022
aF0.1630969682934138
aF0.28846727463636734
aF0.49894600312752024
aF0.44117582911625486
aF0.34619983304334445
aF0.3742813007026117
aF0.4946916466497957
atp148
tp149
a(g6
(S'\x00\t\x16\x00\x00\x00'
p150
tp151
Rp152
g20
(lp153
F0.8361255174048725
aF0.8173997496950045
aF0.6165169456420055
aF0.9118972440663256
aF0.4028517052742381
aF0.5280408051091992
aF0.12953423930408248
aF0.9050652219725208
aF0.42982911518599753
aF0.07541391902706374
aF0.22216672481573974
aF0.6367722960469718
aF0.267074422738497
aF0.5132125179751504
aF0.28528773828939313
aF0.0672940877275342
aF0.28356549241529727
aF0.3339216729386624
aF0.786204175419221
aF0.99821983414297
aF0.5471855454829858
aF0.7727572752175115
aF0.9827922457450855
atp154
a(g6
(S'\x00\t\x1a\x00\x00\x00'
p155
tp156
Rp157
g10
((lp158
g12
ag13
a(lp159
F0.8668613567897382
aF0.6889073647203818
aF0.3606280856353694
aF0.8872621779762236
aF0.035207969396897076
aF0.6417787928644988
aF0.7609545237476107
aF0.2568573020897801
aF0.20124833662814023
aF0.5194099911995409
aF0.0715668181101502
aF0.24770681670908767
aF0.16325375973256362
aF0.5442197797971484
aF0.8691571828390521
aF0.8705113339840661
aF0.48600743781302547
aF0.8150358499204449
aF0.7464761625649594
aF0.8903926995267452
aF0.6017362866114838
aF0.43079187125043206
aF0.06478643354804692
atp160
tp161
a(g6
(S'\x00\t\x1b\x00\x00\x00'
p162
tp163
Rp164
g20
(lp165
F0.670565625837649
aF0.15117393172391824
aF0.49830046118026006
aF0.05101755100577576
aF0.7643030258978322
aF0.31167674788228783
aF0.42357882060253416
aF0.33158809827014
aF0.28451086791994573
aF0.7178963069849609
aF0.48562063305309167
aF0.18268510396245297
aF0.16975081505293677
aF0.9577247585554822
aF0.6143325003311342
aF0.6412278354521566
aF0.3596764501612061
aF0.08377707980610394
aF0.4761503615405539
aF0.6070708795852685
aF0.4918219452744277
aF0.9477681732739697
aF0.7468292538925667
atp166
asS'pointsMoved'
p167
(dp168
I1
(lp169
(lp170
S'52,43,97,55,118'
p171
aS'19,58,198,64,180'
p172
aa(lp173
S'5,67,155,67,155'
p174
aS'31,73,160,73,160'
p175
aasI2
(lp176
(lp177
S'115,156,173,143,219'
p178
aS'77,207,285,176,297'
p179
aS'91,204,294,175,307'
p180
aS'105,209,306,174,322'
p181
aS'61,228,294,204,313'
p182
aS'90,227,287,207,304'
p183
aS'119,144,360,138,354'
p184
aS'88,172,371,155,361'
p185
aS'107,176,376,165,367'
p186
aS'70,200,354,177,350'
p187
aS'63,55,260,61,285'
p188
aS'84,101,235,100,269'
p189
aS'65,122,254,122,275'
p190
aS'85,104,239,104,239'
p191
aS'94,101,238,101,238'
p192
aa(lp193
S'76,129,308,129,308'
p194
aS'117,127,307,127,307'
p195
aS'125,123,313,123,313'
p196
aS'102,121,305,121,305'
p197
aS'67,107,316,107,316'
p198
aS'111,143,330,143,330'
p199
aS'106,146,312,146,312'
p200
aS'103,156,321,156,321'
p201
aS'79,111,334,111,334'
p202
aasI3
(lp203
(lp204
S'158,239,19,302,73'
p205
aS'150,277,83,294,91'
p206
aS'159,258,113,281,123'
p207
aS'134,268,195,279,186'
p208
aS'152,235,184,275,178'
p209
aS'170,311,226,320,211'
p210
aS'177,290,205,303,184'
p211
aS'174,281,205,289,198'
p212
aS'145,258,299,303,259'
p213
aS'133,241,301,282,265'
p214
aS'130,217,278,271,240'
p215
aS'92,250,226,250,226'
p216
aS'131,283,237,283,237'
p217
aS'140,279,231,288,211'
p218
aS'135,306,232,305,217'
p219
aS'138,298,252,300,224'
p220
aS'162,271,257,287,237'
p221
aS'167,276,221,283,210'
p222
aS'163,272,215,280,206'
p223
aS'144,261,208,268,199'
p224
aS'172,257,216,268,211'
p225
aS'166,258,223,274,205'
p226
aS'161,255,236,279,214'
p227
aS'141,241,255,241,255'
p228
aS'139,257,255,257,255'
p229
aS'143,261,255,261,255'
p230
aS'168,252,220,252,220'
p231
aS'142,276,239,276,239'
p232
aS'148,274,233,274,233'
p233
aS'154,288,238,288,238'
p234
aS'160,284,238,284,238'
p235
aS'169,263,205,263,205'
p236
aa(lp237
S'164,307,157,307,157'
p238
aS'175,306,149,306,149'
p239
aS'156,309,137,309,137'
p240
aS'157,333,132,333,132'
p241
aS'155,337,142,337,142'
p242
aS'171,335,151,335,151'
p243
aS'137,336,170,336,170'
p244
aS'149,293,168,293,168'
p245
aS'176,273,146,273,146'
p246
aS'151,276,140,276,140'
p247
aS'173,334,107,334,107'
p248
aS'146,364,127,364,127'
p249
aS'136,329,196,329,196'
p250
aS'147,323,193,323,193'
p251
aS'165,309,185,309,185'
p252
aS'132,289,167,289,167'
p253
aS'153,285,176,285,176'
p254
aasI4
(lp255
(lp256
S'74,75,278,106,308'
p257
aS'63,67,279,87,301'
p258
aS'85,112,283,143,337'
p259
aS'87,163,269,158,300'
p260
aS'96,188,287,173,304'
p261
aS'75,205,275,184,325'
p262
aS'61,238,289,212,322'
p263
aS'92,241,269,219,317'
p264
aS'60,233,259,200,329'
p265
aS'127,219,245,202,305'
p266
aS'129,216,238,207,308'
p267
aS'112,210,229,198,275'
p268
aS'68,198,262,179,297'
p269
aS'62,156,259,156,259'
p270
aS'128,158,258,169,287'
p271
aS'72,165,247,176,284'
p272
aS'122,193,247,169,275'
p273
aS'78,132,238,143,289'
p274
aS'100,131,226,149,280'
p275
aS'115,150,207,176,296'
p276
aS'123,161,204,158,293'
p277
aS'83,260,243,195,305'
p278
aS'118,271,191,199,256'
p279
aS'59,247,92,182,267'
p280
aS'121,110,10,159,266'
p281
aS'95,96,93,156,297'
p282
aS'110,114,142,140,262'
p283
aS'69,113,132,166,293'
p284
aS'124,105,174,164,278'
p285
aS'73,62,120,140,255'
p286
aS'71,84,217,133,261'
p287
aS'80,120,259,134,279'
p288
aS'120,112,260,124,278'
p289
aS'84,112,273,121,280'
p290
aS'4,98,260,127,283'
p291
aS'109,88,258,133,296'
p292
aS'98,62,219,124,302'
p293
aS'66,63,158,149,281'
p294
aS'94,114,280,114,280'
p295
aS'38,103,259,103,259'
p296
aS'99,100,255,100,255'
p297
aa(lp298
S'76,145,314,145,314'
p299
aS'116,146,311,146,311'
p300
aS'89,158,311,158,311'
p301
aS'82,166,317,166,317'
p302
aS'114,158,325,158,325'
p303
aS'106,155,333,155,333'
p304
aS'103,172,336,172,336'
p305
aS'111,152,353,152,353'
p306
aS'119,160,361,160,361'
p307
aS'88,185,371,185,371'
p308
aS'107,195,376,195,376'
p309
aS'117,139,334,139,334'
p310
aS'102,132,332,132,332'
p311
aS'125,133,332,133,332'
p312
aS'67,123,331,123,331'
p313
aS'79,120,338,120,338'
p314
aS'70,221,348,221,348'
p315
aS'105,206,320,206,320'
p316
aS'77,215,309,215,309'
p317
aS'91,211,316,211,316'
p318
aS'90,223,310,223,310'
p319
aS'97,108,328,108,328'
p320
aS'93,107,333,107,333'
p321
aS'104,114,311,114,311'
p322
aS'64,192,296,192,296'
p323
aS'86,190,299,190,299'
p324
aS'101,180,291,180,291'
p325
aS'113,174,289,174,289'
p326
aS'108,147,287,147,287'
p327
aS'126,144,287,144,287'
p328
aS'65,121,293,121,293'
p329
aS'81,103,304,103,304'
p330
aasI5
(lp331
(lp332
S'22,25,139,25,217'
p333
aS'46,38,197,31,238'
p334
aS'50,52,197,35,234'
p335
aS'33,82,200,42,243'
p336
aS'45,97,207,53,239'
p337
aS'57,77,197,48,235'
p338
aS'11,90,189,54,230'
p339
aS'2,61,189,46,236'
p340
aS'20,29,164,36,224'
p341
aS'9,29,151,27,230'
p342
aS'1,58,159,37,223'
p343
aS'29,58,151,39,214'
p344
aS'30,57,174,37,222'
p345
aS'28,55,178,36,231'
p346
aS'16,66,172,43,235'
p347
aS'15,69,160,46,219'
p348
aS'17,80,152,40,224'
p349
aS'48,70,145,42,237'
p350
aS'26,70,139,56,211'
p351
aS'19,56,133,42,203'
p352
aS'54,62,127,47,217'
p353
aS'55,55,119,38,192'
p354
aS'24,64,118,41,217'
p355
aS'23,75,112,45,197'
p356
aS'35,56,92,43,203'
p357
aS'44,55,77,40,165'
p358
aS'34,101,117,42,191'
p359
aS'27,96,106,37,203'
p360
aS'21,97,113,32,209'
p361
aS'38,101,112,34,221'
p362
aS'41,99,110,34,225'
p363
aS'4,101,100,39,218'
p364
aS'36,99,102,25,212'
p365
aS'25,105,96,44,209'
p366
aS'43,122,103,42,211'
p367
aS'37,98,66,42,174'
p368
aS'51,37,195,37,195'
p369
aS'12,65,182,65,182'
p370
aS'73,59,182,59,182'
p371
aS'47,31,167,31,167'
p372
aS'7,59,159,59,159'
p373
aS'40,50,172,50,172'
p374
aS'66,67,167,67,167'
p375
aa(lp376
S'5,46,244,46,244'
p377
aS'13,46,263,46,263'
p378
aS'10,40,266,40,266'
p379
aS'52,25,260,25,260'
p380
aS'18,32,305,32,305'
p381
aS'49,64,249,64,249'
p382
aS'42,20,228,20,228'
p383
aS'6,59,220,59,220'
p384
aS'8,59,225,59,225'
p385
aS'39,57,216,57,216'
p386
aS'14,12,344,12,344'
p387
aS'3,14,352,14,352'
p388
aS'0,10,199,10,199'
p389
aS'56,44,213,44,213'
p390
aS'58,43,211,43,211'
p391
aS'31,53,207,53,207'
p392
aS'53,70,219,70,219'
p393
aasI6
(lp394
(lp395
S'30,54,176,102,88'
p396
aS'121,107,257,116,62'
p397
aS'123,150,110,151,71'
p398
aS'62,153,101,154,76'
p399
aS'59,248,177,208,102'
p400
aS'118,264,122,208,72'
p401
aS'110,123,140,159,93'
p402
aS'69,115,130,136,93'
p403
aS'124,101,128,132,95'
p404
aS'95,93,140,127,89'
p405
aS'71,77,137,125,94'
p406
aS'66,62,148,137,71'
p407
aS'98,62,119,92,89'
p408
aS'83,256,106,201,59'
p409
aS'68,198,101,176,78'
p410
aS'60,242,96,209,75'
p411
aS'61,250,88,254,93'
p412
aS'92,238,74,228,65'
p413
aS'73,53,180,53,180'
p414
aS'115,153,101,153,101'
p415
aa(lp416
S'101,174,51,174,51'
p417
aS'113,182,46,182,46'
p418
aS'103,178,24,178,24'
p419
aS'82,163,36,163,36'
p420
aS'119,156,18,156,18'
p421
aS'88,180,10,180,10'
p422
aS'107,201,17,201,17'
p423
aS'77,214,39,214,39'
p424
aS'90,215,37,215,37'
p425
aS'91,210,35,210,35'
p426
aS'86,191,45,191,45'
p427
aS'87,160,57,160,57'
p428
aS'128,159,57,159,57'
p429
aS'108,147,52,147,52'
p430
aS'106,147,26,147,26'
p431
aS'114,148,30,148,30'
p432
aS'117,145,25,145,25'
p433
aS'89,149,35,149,35'
p434
aS'116,146,34,146,34'
p435
aasI7
(lp436
(lp437
S'121,109,196,141,109'
p438
aS'28,118,82,118,82'
p439
aS'29,39,161,28,161'
p440
aS'73,39,164,95,82'
p441
aa(lp442
S'101,150,40,150,40'
p443
aS'128,146,44,146,44'
p444
aS'82,138,27,138,27'
p445
aS'119,132,17,132,17'
p446
aS'88,157,10,157,10'
p447
aS'103,160,14,160,14'
p448
aasI8
(lp449
(lp450
S'158,302,376,318,278'
p451
aS'141,226,115,259,158'
p452
aS'143,239,100,265,165'
p453
aS'130,250,99,273,170'
p454
aS'61,250,82,275,154'
p455
aS'162,263,87,280,148'
p456
aS'133,267,97,276,128'
p457
aS'170,300,88,304,135'
p458
aS'137,323,113,301,155'
p459
aS'136,334,113,310,150'
p460
aS'134,284,118,298,152'
p461
aS'163,276,120,297,140'
p462
aS'131,278,110,303,150'
p463
aS'145,267,96,303,145'
p464
aS'142,261,96,293,129'
p465
aS'140,253,84,286,117'
p466
aS'60,233,79,230,76'
p467
aS'139,237,79,287,143'
p468
aS'138,285,114,285,114'
p469
aa(lp470
S'149,333,205,333,205'
p471
aS'155,346,200,346,200'
p472
aS'171,356,198,356,198'
p473
aS'173,322,209,322,209'
p474
aS'150,318,219,318,219'
p475
aS'164,320,217,320,217'
p476
aS'151,334,229,334,229'
p477
aS'153,336,233,336,233'
p478
aS'175,329,235,329,235'
p479
aS'156,325,222,325,222'
p480
aS'177,325,224,325,224'
p481
aS'172,297,227,297,227'
p482
aS'166,302,211,302,211'
p483
aS'176,308,210,308,210'
p484
aS'146,364,184,364,184'
p485
aS'159,302,275,302,275'
p486
aasI9
(lp487
(lp488
S'18,56,332,47,233'
p489
aS'14,36,336,41,237'
p490
aS'3,35,346,38,239'
p491
aS'10,35,262,31,233'
p492
aS'52,32,257,28,229'
p493
aS'5,56,257,45,238'
p494
aS'49,70,260,57,237'
p495
aS'28,43,163,48,200'
p496
aS'54,54,152,52,203'
p497
aS'26,55,148,56,196'
p498
aS'1,44,146,55,189'
p499
aS'19,47,144,51,193'
p500
aS'55,51,155,51,170'
p501
aS'24,37,122,26,198'
p502
aS'35,40,118,30,170'
p503
aS'23,46,110,28,154'
p504
aS'44,43,107,24,152'
p505
aS'27,82,123,57,169'
p506
aS'34,78,117,63,159'
p507
aS'41,85,114,66,166'
p508
aS'21,74,105,69,158'
p509
aS'32,66,101,65,155'
p510
aS'36,83,103,68,152'
p511
aS'38,81,100,65,152'
p512
aS'4,88,92,69,165'
p513
aS'25,84,92,64,157'
p514
aS'37,87,90,62,155'
p515
aS'43,107,99,74,161'
p516
aS'13,54,258,54,258'
p517
aS'40,47,163,47,163'
p518
aa(lp519
S'15,63,190,63,190'
p520
aS'30,58,188,58,188'
p521
aS'47,34,189,34,189'
p522
aS'51,30,201,30,201'
p523
aS'46,34,211,34,211'
p524
aS'39,52,205,52,205'
p525
aS'50,55,200,55,200'
p526
aS'56,46,210,46,210'
p527
aS'31,56,221,56,221'
p528
aS'6,46,226,46,226'
p529
aS'58,51,229,51,229'
p530
aS'8,64,222,64,222'
p531
aS'53,69,212,69,212'
p532
aS'16,73,199,73,199'
p533
aS'45,84,201,84,201'
p534
aS'11,79,187,79,187'
p535
aS'33,73,184,73,184'
p536
aS'57,71,189,71,189'
p537
aS'12,61,182,61,182'
p538
aS'2,53,174,53,174'
p539
aS'7,45,186,45,186'
p540
aS'9,29,191,29,191'
p541
aS'42,20,221,20,221'
p542
aS'0,10,217,10,217'
p543
aS'20,21,181,21,181'
p544
aS'22,10,158,10,158'
p545
aS'48,72,166,72,166'
p546
aS'17,84,173,84,173'
p547
aasI10
(lp548
(lp549
S'158,310,376,316,234'
p550
aS'159,306,274,309,238'
p551
aS'60,232,75,224,74'
p552
aS'139,233,72,295,170'
p553
aS'141,224,106,294,193'
p554
aS'161,253,123,282,164'
p555
aS'143,236,94,265,148'
p556
aS'61,248,69,248,69'
p557
aS'118,246,78,245,78'
p558
aS'130,253,97,284,153'
p559
aS'142,257,90,280,138'
p560
aS'162,260,81,283,138'
p561
aS'133,268,97,276,144'
p562
aS'145,269,95,290,141'
p563
aS'134,285,109,291,149'
p564
aS'131,277,105,291,153'
p565
aS'138,284,109,293,146'
p566
aS'163,275,109,287,144'
p567
aS'170,296,81,296,141'
p568
aS'137,320,107,299,135'
p569
aS'136,335,107,332,143'
p570
aS'140,247,76,247,76'
p571
aa(lp572
S'173,321,200,321,200'
p573
aS'176,313,204,313,204'
p574
aS'166,307,212,307,212'
p575
aS'172,303,225,303,225'
p576
aS'150,320,213,320,213'
p577
aS'164,321,211,321,211'
p578
aS'156,326,215,326,215'
p579
aS'177,329,224,329,224'
p580
aS'153,342,233,342,233'
p581
aS'175,333,231,333,231'
p582
aS'151,338,228,338,228'
p583
aS'149,336,201,336,201'
p584
aS'155,348,194,348,194'
p585
aS'171,357,193,357,193'
p586
aS'146,364,177,364,177'
p587
aS'167,309,180,309,180'
p588
aS'148,302,168,302,168'
p589
aS'168,275,171,275,171'
p590
aS'169,273,171,273,171'
p591
aS'152,284,158,284,158'
p592
aS'174,290,154,290,154'
p593
aS'157,321,161,321,161'
p594
aasI11
(lp595
(lp596
S'121,88,224,155,95'
p597
aS'73,36,170,134,72'
p598
aS'71,67,131,148,69'
p599
aS'66,62,125,138,61'
p600
aS'59,239,123,189,68'
p601
aS'60,238,88,211,62'
p602
aS'83,248,86,195,48'
p603
aS'61,257,88,198,45'
p604
aS'70,236,59,214,48'
p605
aS'92,232,55,205,44'
p606
aS'98,69,107,106,69'
p607
aa(lp608
S'76,145,57,145,57'
p609
aS'111,139,20,139,20'
p610
aS'117,134,17,134,17'
p611
aS'119,141,16,141,16'
p612
aS'89,126,27,126,27'
p613
aS'106,131,22,131,22'
p614
aS'114,129,26,129,26'
p615
aS'116,128,27,128,27'
p616
aS'128,151,34,151,34'
p617
aS'108,138,34,138,34'
p618
aS'82,145,28,145,28'
p619
aS'101,159,34,159,34'
p620
aS'88,165,10,165,10'
p621
aS'103,173,14,173,14'
p622
aS'113,176,29,176,29'
p623
aS'105,174,43,174,43'
p624
aS'86,181,32,181,32'
p625
aS'64,184,45,184,45'
p626
aS'129,193,43,193,43'
p627
aS'75,204,43,204,43'
p628
aS'127,201,54,201,54'
p629
aS'96,198,46,198,46'
p630
aS'112,188,57,188,57'
p631
aS'77,199,20,199,20'
p632
aS'90,204,24,204,24'
p633
aS'91,196,21,196,21'
p634
aS'107,197,21,197,21'
p635
aS'72,151,67,151,67'
p636
aS'78,148,65,148,65'
p637
aS'122,157,56,157,56'
p638
aS'126,138,59,138,59'
p639
aS'65,131,59,131,59'
p640
aS'87,134,45,134,45'
p641
aS'84,119,52,119,52'
p642
aS'80,105,50,105,50'
p643
aS'94,109,48,109,48'
p644
aS'102,116,40,116,40'
p645
aS'125,115,33,115,33'
p646
aS'97,106,33,106,33'
p647
aS'93,95,34,95,34'
p648
aS'67,99,45,99,45'
p649
aS'79,98,44,98,44'
p650
aS'85,99,43,99,43'
p651
aassS'layouts'
p652
(lp653
(cnumpy.core.multiarray
scalar
p654
(cnumpy
dtype
p655
(S'f8'
p656
I0
I1
tp657
Rp658
(I3
S'<'
p659
NNNI-1
I-1
I0
tp660
bS'\xc3\\|\x0e\xe2I\xa5\xbf'
p661
tp662
Rp663
g654
(g658
S'\x98S\xe05\xeb\x04\xbc\xbf'
p664
tp665
Rp666
tp667
a(g654
(g658
S' \x83\xad@\x9c\x07\xa0\xbf'
p668
tp669
Rp670
g654
(g658
S'x\x9cl^\xc3E\xbc\xbf'
p671
tp672
Rp673
tp674
a(g654
(g658
S'L\xf8\xa2\xde\x84%\x91\xbf'
p675
tp676
Rp677
g654
(g658
S'\xcd\xfdj\t\xc3F\xbc\xbf'
p678
tp679
Rp680
tp681
a(g654
(g658
S'\x19\xf3\x87\x91%\xdc`?'
p682
tp683
Rp684
g654
(g658
S'1\x1b\x02RGI\xb2\xbf'
p685
tp686
Rp687
tp688
a(g654
(g658
S'\xab\xe8\xb9\xff\xc5*\x9c?'
p689
tp690
Rp691
g654
(g658
S'-\x07\xf7,\xc0\x8a\xb0\xbf'
p692
tp693
Rp694
tp695
a(g654
(g658
S'\x91\xb1\xc3\xdf\x12\xfd\x9b?'
p696
tp697
Rp698
g654
(g658
S'\x8a\x90/2\xd9jr\xbf'
p699
tp700
Rp701
tp702
a(g654
(g658
S'!\xba\xf0\r\xbb\xdb\x9b?'
p703
tp704
Rp705
g654
(g658
S'\xe9I\x02\x13\xa0\xca\xa3?'
p706
tp707
Rp708
tp709
a(g654
(g658
S'\x91\xb1\xc3\xdf\x12\xfd\x9b?'
p710
tp711
Rp712
g654
(g658
S'\x8a\x90/2\xd9jr\xbf'
p713
tp714
Rp715
tp716
a(g654
(g658
S'\xcd\xf0\xad\x19i\xea\xaa?'
p717
tp718
Rp719
g654
(g658
S'Cu\x9e\xa8\x05\xba\x97\xbf'
p720
tp721
Rp722
tp723
a(g654
(g658
S'\x91\xb1\xc3\xdf\x12\xfd\x9b?'
p724
tp725
Rp726
g654
(g658
S'\x8a\x90/2\xd9jr\xbf'
p727
tp728
Rp729
tp730
a(g654
(g658
S'\xca\xe7\xd6\x89d\xdd\xa3?'
p731
tp732
Rp733
g654
(g658
S'L\x08\x159\x80\x02\x8e?'
p734
tp735
Rp736
tp737
a(g654
(g658
S'f-o9\x86\xcf\xb2?'
p738
tp739
Rp740
g654
(g658
S'u\xde\x03Beh\x8a\xbf'
p741
tp742
Rp743
tp744
a(g654
(g658
S'3\x10\xa1\x04\xb1\xbe\xb1?'
p745
tp746
Rp747
g654
(g658
S'\xd8G\x84\xcb\xdc\xc4\xb0?'
p748
tp749
Rp750
tp751
asS'KNNAcc'
p752
(lp753
g654
(g658
S'\xe2\xe9\xd7\xfb\xb3C\xed?'
p754
tp755
Rp756
ag654
(g658
S'\xed\x9f8\x07j\xa4\xed?'
p757
tp758
Rp759
ag654
(g658
S'v%\xc7\x83\n\xfd\xed?'
p760
tp761
Rp762
ag654
(g658
S'((((((\xee?'
p763
tp764
Rp765
ag654
(g658
S'(\x86\xc9BP5\xee?'
p766
tp767
Rp768
ag654
(g658
S'\xbd\xc1\xb8\xca\xa6\xee\xee?'
p769
tp770
Rp771
ag654
(g658
S'\x0b\xbfW&\x89\xc3\xee?'
p772
tp773
Rp774
ag654
(g658
S'\xe3A\x85\xfe\x0b\xf1\xee?'
p775
tp776
Rp777
ag654
(g658
S'\x0b\xbfW&\x89\xc3\xee?'
p778
tp779
Rp780
ag654
(g658
S'\x95D\xe6\xa2)\x1c\xef?'
p781
tp782
Rp783
ag654
(g658
S'\x0b\xbfW&\x89\xc3\xee?'
p784
tp785
Rp786
ag654
(g658
S'\x95D\xe6\xa2)\x1c\xef?'
p787
tp788
Rp789
ag654
(g658
S'\xbd\xc1\xb8\xca\xa6\xee\xee?'
p790
tp791
Rp792
ag654
(g658
S'\x95D\xe6\xa2)\x1c\xef?'
p793
tp794
Rp795
asS'observations'
p796
(dp797
S'gender'
p798
S'm'
p799
sS'comments'
p800
(lp801
S'Malic_acid'
p802
aS'Ash'
p803
aS'Alcalinity_of_ash'
p804
aS'Magnesium'
p805
asS'job'
p806
S'student'
p807
sS'insight_names'
p808
(lp809
(lp810
asS'starttime'
p811
g6
(S'\x00\x00\x00\x00\x00\x00'
p812
tp813
Rp814
sS'insights'
p815
(dp816
g815
(dp817
S'notes'
p818
S'xyz'
p819
sg803
I1
sS'time'
p820
g6
(S'\x00\n#\x00\x00\x00'
p821
tp822
Rp823
ssssS'topFeatures'
p824
(lp825
S'NA All Weights Equal'
p826
a(lp827
S'Proanthocyanins'
p828
ag803
ag805
aS'Hue'
p829
aS'Flavanoids'
p830
aa(lp831
S'Color_intensity'
p832
ag830
ag805
ag828
aS'Alcohol'
p833
aa(lp834
g830
ag805
ag803
ag833
ag804
aa(lp835
g832
ag833
aS'OD280/OD315_of_diluted_wines'
p836
ag830
ag804
aa(lp837
g832
ag833
ag830
ag836
ag829
aa(lp838
g832
ag836
ag833
ag829
aS'Proline'
p839
aa(lp840
g832
ag833
ag836
ag829
ag839
aa(lp841
g832
ag836
ag833
ag829
ag839
aa(lp842
g836
ag832
ag833
ag829
ag839
aa(lp843
g832
ag836
ag833
ag829
ag839
aa(lp844
g832
ag836
ag833
ag829
ag839
aa(lp845
g836
ag832
ag833
ag829
ag839
aa(lp846
g832
ag836
ag833
ag829
ag839
aasS'initLayoutPoint'
p847
(g654
(g658
S'AR\xccR"A\xb1\xbf'
p848
tp849
Rp850
g654
(g658
S'\xda\xa4A\x8dK\xbc\xba\xbf'
p851
tp852
Rp853
tp854
sS'terms'
p855
(lp856
g833
ag802
ag803
ag804
ag805
aS'Total_phenols'
p857
ag830
aS'Nonflavanoid_phenols'
p858
ag828
ag832
ag829
ag836
ag839
aS'noise1'
p859
aS'noise2'
p860
aS'noise3'
p861
aS'noise4'
p862
aS'noise5'
p863
aS'noise6'
p864
aS'noise7'
p865
aS'noise8'
p866
aS'noise9'
p867
aS'noise10'
p868
assI2
(dp869
g2
(lp870
I0
aI0
aI0
aI0
aI0
aI0
aI0
aI0
asg4
(lp871
(g6
(S'\x00\x08\x1a\x00\x00\x00'
p872
tp873
Rp874
g10
((lp875
g12
ag13
a(lp876
F0.2611295595013433
aF0.3108844664020658
aF0.9781362794536338
aF0.5904057654128684
aF0.533541253779122
aF0.4871236478917348
aF0.6697888618738538
aF0.5158493021039711
aF0.7084216871969071
aF0.9825498396774626
aF0.8534781022640746
aF0.393385194227171
aF0.3434003504325692
aF0.7701214865824351
aF0.9630900433715884
aF0.7186353073589016
aF0.7764451814446488
aF0.0248172161457082
aF0.19718637726578359
aF0.39850265623267844
aF0.92214513386876
aF0.5304303797553135
aF0.7785055775519032
atp877
tp878
a(g6
(S'\x00\x08\x1b\x00\x00\x00'
p879
tp880
Rp881
g20
(lp882
F0.6336880717219339
aF0.09162646657027085
aF0.0249043573389931
aF0.6836818840574072
aF0.8026418320840027
aF0.3888518132516028
aF0.60835904553915
aF0.7249410780941825
aF0.9350634248405385
aF0.30465910590902145
aF0.6084281708168611
aF0.05630797640799112
aF0.9914753866990742
aF0.2872825674221512
aF0.7438232782774025
aF0.539381401804512
aF0.46757937874611555
aF0.8579282011479604
aF0.905186985297371
aF0.27659514358945414
aF0.9482780293821349
aF0.254610323766407
aF0.9355869247653502
atp883
a(g6
(S'\x00\x08\x1f\x00\x00\x00'
p884
tp885
Rp886
g10
((lp887
g12
ag13
a(lp888
F0.059295035350216185
aF0.41099033449320577
aF0.827581167168909
aF0.05016235075077047
aF0.34293005234672536
aF0.6210447175160775
aF0.09196533455800604
aF0.9211729388417352
aF0.23574324160261428
aF0.8692906370458638
aF0.7025955201572444
aF0.08702184370699872
aF0.3980705002577707
aF0.8306212669253624
aF0.79104911196503
aF0.825457409553162
aF0.20267855801802204
aF0.7333968542572903
aF0.808426271437394
aF0.15210862956718252
aF0.07666750686989476
aF0.14568411979175577
aF0.695257930682657
atp889
tp890
a(g6
(S'\x00\x08 \x00\x00\x00'
p891
tp892
Rp893
g20
(lp894
F0.3408179773778345
aF0.7300462176090223
aF0.4403391687261158
aF0.8959394154821877
aF0.048568721403618675
aF0.894997557348078
aF0.4428484819231102
aF0.24075642785016083
aF0.7682449274481051
aF0.32272343545286664
aF0.3843229247073404
aF0.27061838171055175
aF0.4780332970793766
aF0.7310465802561674
aF0.5666379847847318
aF0.0422145537058769
aF0.9241645158023524
aF0.9679068685683234
aF0.05050307475603555
aF0.2804096696755568
aF0.04397515933966689
aF0.7546100799793529
aF0.5747059727493256
atp895
a(g6
(S'\x00\x08$\x00\x00\x00'
p896
tp897
Rp898
g10
((lp899
g12
ag13
a(lp900
F0.14547716805318767
aF0.9160087638719285
aF0.9439986606241688
aF0.33083708971527914
aF0.7406116501182998
aF0.26479782169469235
aF0.08191299820497833
aF0.5253688052453157
aF0.20925262887957663
aF0.13766390289462105
aF0.8996267120692494
aF0.42236017844235807
aF0.16190109194354374
aF0.6296531920978966
aF0.8661519718912087
aF0.30828224276554683
aF0.710385075141931
aF0.8296360775476432
aF0.8665632592894991
aF0.2224854667164935
aF0.45289795131726296
aF0.2961000186088626
aF0.46669708938468335
atp901
tp902
a(g6
(S'\x00\x08%\x00\x00\x00'
p903
tp904
Rp905
g20
(lp906
F0.3667064016713474
aF0.5099785765941547
aF0.38902600143882293
aF0.1573072514415652
aF0.9949363668616054
aF0.28845335925781335
aF0.7971727032328053
aF0.9138872805677902
aF0.8997841272778399
aF0.833131793968041
aF0.7846650360659679
aF0.8607255185653591
aF0.8900648330372345
aF0.24846551443530784
aF0.24897528271018843
aF0.7593715338300041
aF0.2239159920325796
aF0.6963814824508239
aF0.8555238556485374
aF0.34833058783255366
aF0.30402990237596506
aF0.5325684138388802
aF0.23395866934734844
atp907
a(g6
(S'\x00\x08)\x00\x00\x00'
p908
tp909
Rp910
g10
((lp911
g12
ag13
a(lp912
F0.5139162330454962
aF0.5369734252931598
aF0.5450865060472252
aF0.9107943159590777
aF0.5739077430080209
aF0.8931626833026112
aF0.7804325924036797
aF0.9150447349928286
aF0.16893362059452854
aF0.6639239899978601
aF0.6990724591813361
aF0.21049051610693703
aF0.19836632804896015
aF0.5423976739052614
aF0.4428647955055026
aF0.8949575230202292
aF0.5793716551775562
aF0.9391639208437308
aF0.5054853886782943
aF0.4871206722747533
aF0.3389186833457323
aF0.9623044188812129
aF0.12130606911130482
atp913
tp914
a(g6
(S'\x00\x08*\x00\x00\x00'
p915
tp916
Rp917
g20
(lp918
F0.3338294378730996
aF0.315782776452193
aF0.4442044027952592
aF0.3361610503887311
aF0.5822257570351873
aF0.00987423772551499
aF0.27728143434237085
aF0.343272401957298
aF0.019759142309311528
aF0.6461016653578803
aF0.44262960257858
aF0.3170453608342443
aF0.9363747800409982
aF0.36926049588146703
aF0.776312347922026
aF0.2657088974462931
aF0.11960347528345583
aF0.0737792871591113
aF0.324444385435655
aF0.41154771627489095
aF0.6432081915764994
aF0.7286356864816435
aF0.02161679245917758
atp919
a(g6
(S'\x00\x08.\x00\x00\x00'
p920
tp921
Rp922
g10
((lp923
g12
ag13
a(lp924
F0.28479052145773365
aF0.43694866899831974
aF0.9563887175962152
aF0.6703019597609663
aF0.25076100170073334
aF0.05942006411802658
aF0.8524557287546333
aF0.5403433313543821
aF0.27165082818378516
aF0.11970425061886725
aF0.27420450646506533
aF0.594844909308503
aF0.6620482884023666
aF0.8117816083551307
aF0.7018882979099231
aF0.7228570028908845
aF0.6273136279183308
aF0.9476552894151824
aF0.893117519438824
aF0.7818874945430386
aF0.6540969702540191
aF0.5850380806607698
aF0.5083488137362836
atp925
tp926
a(g6
(S'\x00\x08/\x00\x00\x00'
p927
tp928
Rp929
g20
(lp930
F0.36370602497170024
aF0.9208542261102807
aF0.7802778893691354
aF0.6436402374667087
aF0.918907913859531
aF0.16586941725176851
aF0.23079353895762145
aF0.40178073656520985
aF0.5870782104205426
aF0.14118527738585251
aF0.5979734737179034
aF0.6829929437223571
aF0.251276741603808
aF0.34646290394666424
aF0.02085790464167747
aF0.2428659622228716
aF0.7529787989859439
aF0.2459555679503238
aF0.7190918283109008
aF0.42346374089964456
aF0.8130553993871521
aF0.24222602911863855
aF0.5907311041287957
atp931
a(g6
(S'\x00\x083\x00\x00\x00'
p932
tp933
Rp934
g10
((lp935
g12
ag13
a(lp936
F0.20096570181151152
aF0.447869484120085
aF0.4703404027600886
aF0.7256059189850791
aF0.8976923756888802
aF0.9242331581500391
aF0.7273437903206129
aF0.3338199499266644
aF0.7104895451180832
aF0.6867443277262334
aF0.5826401959494409
aF0.07814467632753663
aF0.34779795782173184
aF0.8338326050531962
aF0.7185206015328007
aF0.8508681988069997
aF0.4487537280755648
aF0.8958500604291576
aF0.9586807671106781
aF0.7849839286201717
aF0.6452089760109054
aF0.10539089078498753
aF0.07773776422388723
atp937
tp938
a(g6
(S'\x00\x084\x00\x00\x00'
p939
tp940
Rp941
g20
(lp942
F0.7148007841888064
aF0.5499193471979843
aF0.9424116177157527
aF0.8865044630375373
aF0.9680192049264291
aF0.24368410338987878
aF0.5864863751643501
aF0.3597626935557191
aF0.6256774189363153
aF0.8775714649690407
aF0.5323871163592818
aF0.8481846477449646
aF0.3713161992326254
aF0.4086334922186362
aF0.5449248942686153
aF0.8636682096223769
aF0.6275038943719716
aF0.8704547768103856
aF0.22599594485224272
aF0.07499170506439412
aF0.6195623151818251
aF0.40606254330361635
aF0.774374018717854
atp943
a(g6
(S'\x00\x088\x00\x00\x00'
p944
tp945
Rp946
g10
((lp947
g12
ag13
a(lp948
F0.7348308179897358
aF0.10352487080097161
aF0.7403440202036436
aF0.7092763478874491
aF0.8638351336396511
aF0.5606474626019832
aF0.9907490560266801
aF0.5942547044837624
aF0.8504352761522517
aF0.7557079284477635
aF0.49164540215281904
aF0.6734349810145064
aF0.9115287516480961
aF0.34174757797817756
aF0.7653248923100193
aF0.8057931618165033
aF0.6883581287558731
aF0.48398239170625157
aF0.4102845357638212
aF0.09628146429101381
aF0.9195550025744086
aF0.21262005213436852
aF0.463739366642257
atp949
tp950
a(g6
(S'\x00\x089\x00\x00\x00'
p951
tp952
Rp953
g20
(lp954
F0.37927051860628036
aF0.004244667513264688
aF0.5910850533014165
aF0.09601117619749966
aF0.205905099688117
aF0.24140009207665925
aF0.5197503341944899
aF0.30327859086920084
aF0.22213100150190135
aF0.9470499916931715
aF0.9915740818313786
aF0.7431369389579817
aF0.9398865064547458
aF0.873736491801272
aF0.640715537101917
aF0.23267867746582682
aF0.7780474764369956
aF0.5861998321099343
aF0.23168658493408623
aF0.3789708556811765
aF0.021208868464988595
aF0.06608872278903155
aF0.44522309362756707
atp955
a(g6
(S'\x00\t\x01\x00\x00\x00'
p956
tp957
Rp958
g10
((lp959
g12
ag13
a(lp960
F0.02421073337195867
aF0.21408267405725534
aF0.3759400993008344
aF0.4292314947171453
aF0.8015962381105458
aF0.9795446345085799
aF0.3417658108882359
aF0.05005371150387794
aF0.10561680391283357
aF0.29368492173680827
aF0.17127702920049004
aF0.9255322233184712
aF0.793502491702558
aF0.8534105089694668
aF0.11363791169556192
aF0.29010817711052905
aF0.37366854939203265
aF0.1824100623026148
aF0.4006884593884954
aF0.6920418302108722
aF0.19965005057695562
aF0.5877082582105789
aF0.4900629220611682
atp961
tp962
a(g6
(S'\x00\t\x02\x00\x00\x00'
p963
tp964
Rp965
g20
(lp966
F0.8503985721692698
aF0.4109149101169377
aF0.6295361030518789
aF0.8622216677487479
aF0.6729564872098629
aF0.3124583489611006
aF0.9344663705130664
aF0.535390156489601
aF0.9193765283755065
aF0.5421061142086337
aF0.5668213643042125
aF0.781792434774562
aF0.9636696938242629
aF0.6449331015808382
aF0.1472289398416029
aF0.41143368072255115
aF0.8555823257206864
aF0.583848614887767
aF0.28543713597679365
aF0.6700829685597693
aF0.7326593575483138
aF0.644447137831483
aF0.7081352349804421
atp967
asg167
(dp968
I1
(lp969
(lp970
S'59,230,39,163,129'
p971
aS'121,118,10,140,121'
p972
aS'123,142,170,145,204'
p973
aS'128,151,180,152,205'
p974
aS'115,136,165,138,193'
p975
aa(lp976
S'128,152,205,152,205'
p977
aS'123,145,204,145,204'
p978
aS'115,138,193,138,193'
p979
aS'113,151,212,151,212'
p980
aS'126,149,222,149,222'
p981
aS'101,156,217,156,217'
p982
aS'62,134,218,134,218'
p983
aS'87,135,215,135,215'
p984
aS'108,136,221,136,221'
p985
aasI2
(lp986
(lp987
S'95,109,84,154,187'
p988
aS'69,115,131,137,185'
p989
aS'121,124,120,149,171'
p990
aS'59,236,127,187,175'
p991
aS'118,266,136,184,193'
p992
aa(lp993
S'128,175,231,175,231'
p994
aS'129,192,229,192,229'
p995
aS'122,193,244,193,244'
p996
aS'113,189,254,189,254'
p997
aS'101,186,259,186,259'
p998
aS'126,176,264,176,264'
p999
aS'108,167,260,167,260'
p1000
aS'62,167,250,167,250'
p1001
aS'87,165,275,165,275'
p1002
aS'89,166,289,166,289'
p1003
aS'76,171,305,171,305'
p1004
aS'111,174,306,174,306'
p1005
aS'106,178,310,178,310'
p1006
aS'82,176,318,176,318'
p1007
aS'103,179,326,179,326'
p1008
aS'88,198,346,198,346'
p1009
aS'107,205,350,205,350'
p1010
aS'96,168,271,168,271'
p1011
aS'117,153,291,153,291'
p1012
aS'116,153,302,153,302'
p1013
aS'125,149,301,149,301'
p1014
aS'67,146,309,146,309'
p1015
aS'102,143,307,143,307'
p1016
aS'97,139,320,139,320'
p1017
aasI3
(lp1018
(lp1019
S'118,264,199,186,239'
p1020
aS'59,226,201,173,243'
p1021
aS'121,136,193,165,231'
p1022
aS'95,120,209,153,238'
p1023
aS'69,123,222,150,232'
p1024
aS'34,121,235,142,240'
p1025
aS'110,123,236,136,253'
p1026
aa(lp1027
S'101,188,289,188,289'
p1028
aS'126,181,292,181,292'
p1029
aS'76,176,305,176,305'
p1030
aS'108,177,295,177,295'
p1031
aS'113,197,283,197,283'
p1032
aS'122,198,279,198,279'
p1033
aS'87,169,304,169,304'
p1034
aS'89,165,315,165,315'
p1035
aS'117,165,316,165,316'
p1036
aS'125,155,319,155,319'
p1037
aS'67,145,324,145,324'
p1038
aS'102,149,322,149,322'
p1039
aS'116,158,324,158,324'
p1040
aS'96,181,298,181,298'
p1041
aS'79,144,335,144,335'
p1042
aS'97,148,335,148,335'
p1043
aS'114,185,317,185,317'
p1044
aS'111,174,322,174,322'
p1045
aS'106,184,327,184,327'
p1046
aS'82,178,335,178,335'
p1047
aS'128,185,273,185,273'
p1048
aS'115,187,260,187,260'
p1049
aS'80,156,285,156,285'
p1050
aS'78,163,285,163,285'
p1051
aS'99,148,292,148,292'
p1052
aS'85,143,295,143,295'
p1053
aS'129,198,262,198,262'
p1054
aasI4
(lp1055
(lp1056
S'43,134,283,114,167'
p1057
aS'32,126,284,111,181'
p1058
aS'4,125,290,108,193'
p1059
aS'37,118,285,99,198'
p1060
aS'36,125,283,111,200'
p1061
aS'25,131,305,118,177'
p1062
aS'38,123,259,118,187'
p1063
aS'34,120,246,115,199'
p1064
aS'21,117,267,103,229'
p1065
aS'41,106,261,100,225'
p1066
aS'27,103,250,93,227'
p1067
aS'44,89,292,103,150'
p1068
aS'24,88,276,101,141'
p1069
aS'35,80,277,50,229'
p1070
aS'66,104,258,104,258'
p1071
aa(lp1072
S'15,91,191,91,191'
p1073
aS'45,91,188,91,188'
p1074
aS'16,84,196,84,196'
p1075
aS'50,79,197,79,197'
p1076
aS'30,73,199,73,199'
p1077
aS'39,76,195,76,195'
p1078
aS'46,56,204,56,204'
p1079
aS'7,69,211,69,211'
p1080
aS'9,53,213,53,213'
p1081
aS'8,79,174,79,174'
p1082
aS'12,80,183,80,183'
p1083
aS'11,96,171,96,171'
p1084
aS'13,92,169,92,169'
p1085
aS'26,89,229,89,229'
p1086
aS'48,92,225,92,225'
p1087
aS'28,82,229,82,229'
p1088
aS'29,77,229,77,229'
p1089
aasI5
(lp1090
(lp1091
S'140,250,263,250,188'
p1092
aS'142,252,266,251,173'
p1093
aS'145,242,261,243,187'
p1094
aS'139,230,266,248,176'
p1095
aS'143,227,268,240,183'
p1096
aS'141,208,254,255,198'
p1097
aS'130,228,253,246,202'
p1098
aS'133,231,250,255,207'
p1099
aS'162,265,254,302,211'
p1100
aS'170,283,253,310,197'
p1101
aS'158,232,10,243,161'
p1102
aa(lp1103
S'148,257,190,257,190'
p1104
aS'174,253,194,253,194'
p1105
aS'132,270,189,270,189'
p1106
aS'165,286,190,286,190'
p1107
aS'135,302,192,302,192'
p1108
aS'154,289,209,289,209'
p1109
aS'134,274,210,274,210'
p1110
aS'147,274,206,274,206'
p1111
aasI6
(lp1112
(lp1113
S'121,135,237,206,281'
p1114
aS'22,65,245,225,290'
p1115
aS'24,96,282,229,286'
p1116
aS'71,127,273,226,293'
p1117
aS'98,123,271,229,287'
p1118
aS'66,124,280,225,309'
p1119
aS'63,131,296,223,327'
p1120
aS'69,150,278,245,315'
p1121
aS'95,139,258,241,329'
p1122
aS'124,135,289,240,348'
p1123
aS'73,70,243,70,243'
p1124
aS'35,96,281,96,281'
p1125
aS'74,98,280,98,280'
p1126
aS'110,150,278,150,278'
p1127
aa(lp1128
S'80,178,324,178,324'
p1129
aS'87,184,325,184,325'
p1130
aS'106,199,335,199,335'
p1131
aS'89,177,337,177,337'
p1132
aS'97,176,345,176,345'
p1133
aS'116,179,340,179,340'
p1134
aS'108,195,328,195,328'
p1135
aS'114,190,333,190,333'
p1136
aS'72,186,290,186,290'
p1137
aS'111,192,336,192,336'
p1138
aS'117,192,337,192,337'
p1139
aS'82,195,342,195,342'
p1140
aS'125,173,339,173,339'
p1141
aS'67,164,332,164,332'
p1142
aS'99,168,316,168,316'
p1143
aS'85,166,329,166,329'
p1144
aS'79,161,342,161,342'
p1145
aS'93,165,340,165,340'
p1146
aS'102,167,340,167,340'
p1147
aS'84,167,322,167,322'
p1148
aS'126,192,314,192,314'
p1149
aS'76,204,309,204,309'
p1150
aS'101,206,311,206,311'
p1151
aS'128,204,314,204,314'
p1152
aS'122,203,315,203,315'
p1153
aS'78,192,298,192,298'
p1154
aS'115,195,290,195,290'
p1155
aS'65,180,302,180,302'
p1156
aS'88,212,335,212,335'
p1157
aasI7
(lp1158
(lp1159
S'63,121,296,280,343'
p1160
aS'36,126,287,227,345'
p1161
aS'69,132,281,247,346'
p1162
aS'110,141,280,250,320'
p1163
aS'121,130,245,215,337'
p1164
aS'95,126,261,241,329'
p1165
aS'71,115,275,256,334'
p1166
aS'74,84,276,260,353'
p1167
aS'73,56,242,258,334'
p1168
aS'32,120,279,281,317'
p1169
aS'124,124,287,124,287'
p1170
aS'98,114,275,114,275'
p1171
aS'66,113,279,113,279'
p1172
aa(lp1173
S'126,183,317,183,317'
p1174
aS'113,206,313,206,313'
p1175
aS'108,182,331,182,331'
p1176
aS'102,153,338,153,338'
p1177
aS'84,152,321,152,321'
p1178
aS'99,158,316,158,316'
p1179
aS'80,163,326,163,326'
p1180
aS'87,167,328,167,328'
p1181
aS'89,160,338,160,338'
p1182
aS'116,161,342,161,342'
p1183
aS'125,160,339,160,339'
p1184
aS'82,178,342,178,342'
p1185
aS'106,182,337,182,337'
p1186
aS'111,179,337,179,337'
p1187
aS'114,177,335,177,335'
p1188
aS'117,178,339,178,339'
p1189
aS'67,146,329,146,329'
p1190
aS'85,150,329,150,329'
p1191
aS'62,169,290,169,290'
p1192
aS'72,173,296,173,296'
p1193
aS'115,184,294,184,294'
p1194
aS'78,178,301,178,301'
p1195
aS'65,169,302,169,302'
p1196
aasI8
(lp1197
(lp1198
S'159,303,157,303,157'
p1199
aS'158,306,183,306,183'
p1200
aa(lp1201
S'177,260,127,260,127'
p1202
aS'173,267,121,267,121'
p1203
aS'155,281,127,281,127'
p1204
aS'156,272,122,272,122'
p1205
aS'157,265,139,265,139'
p1206
aS'166,247,129,247,129'
p1207
aS'172,246,125,246,125'
p1208
aS'176,253,122,253,122'
p1209
aS'167,261,157,261,157'
p1210
aassg652
(lp1211
(g654
(g658
S'\x8ec:\x8c\x85\xf7\xa3\xbf'
p1212
tp1213
Rp1214
g654
(g658
S'\xf0\xce\xff\x88v\x0c\xb7\xbf'
p1215
tp1216
Rp1217
tp1218
a(g654
(g658
S"&\xec\x1a\x91'\xd1\x97\xbf"
p1219
tp1220
Rp1221
g654
(g658
S'\xde\x82W[\x96O\xa1\xbf'
p1222
tp1223
Rp1224
tp1225
a(g654
(g658
S'\x85\x10S;\x1f\xa8\x94\xbf'
p1226
tp1227
Rp1228
g654
(g658
S'\xe74}\xbf\xad\xa9\x81?'
p1229
tp1230
Rp1231
tp1232
a(g654
(g658
S'x\x9eB\xb8\xff\x1c{\xbf'
p1233
tp1234
Rp1235
g654
(g658
S'\xcas\xfd4]U\x9e?'
p1236
tp1237
Rp1238
tp1239
a(g654
(g658
S'b\x9b\x0f\xfe^P\xb6?'
p1240
tp1241
Rp1242
g654
(g658
S'\xf0\xdc\xc9,\xd6\xc7~\xbf'
p1243
tp1244
Rp1245
tp1246
a(g654
(g658
S'\xe5c;X5v\xb2?'
p1247
tp1248
Rp1249
g654
(g658
S'L5\xdc\xa4n\x94\x9c?'
p1250
tp1251
Rp1252
tp1253
a(g654
(g658
S'T$\x1c\xa6\xc3\x05\xb3?'
p1254
tp1255
Rp1256
g654
(g658
S'z\xe8\xb7\x16\xeaJp\xbf'
p1257
tp1258
Rp1259
tp1260
a(g654
(g658
S'T$\x1c\xa6\xc3\x05\xb3?'
p1261
tp1262
Rp1263
g654
(g658
S'z\xe8\xb7\x16\xeaJp\xbf'
p1264
tp1265
Rp1266
tp1267
asg752
(lp1268
g654
(g658
S'\xe2\xe9\xd7\xfb\xb3C\xed?'
p1269
tp1270
Rp1271
ag654
(g658
S'\x96J\xe3\xb1\x14O\xed?'
p1272
tp1273
Rp1274
ag654
(g658
S'\xfa\xadF\x15x\xb2\xed?'
p1275
tp1276
Rp1277
ag654
(g658
S'\xaa\xb6\x9b\xd1e=\xee?'
p1278
tp1279
Rp1280
ag654
(g658
S'\xd23n\xf9\xe2\x0f\xee?'
p1281
tp1282
Rp1283
ag654
(g658
S'[\xb9\xfcu\x83h\xee?'
p1284
tp1285
Rp1286
ag654
(g658
S'(\x86\xc9BP5\xee?'
p1287
tp1288
Rp1289
ag654
(g658
S'\xf8U\x99\x12 \x05\xee?'
p1290
tp1291
Rp1292
ag654
(g658
S'\xf8U\x99\x12 \x05\xee?'
p1293
tp1294
Rp1295
asg796
(dp1296
g798
g799
sg800
g801
sg806
g807
sg808
(lp1297
(lp1298
asg811
g6
(S'\x00\x00\x00\x00\x00\x00'
p1299
tp1300
Rp1301
sg815
g816
ssg824
(lp1302
g826
a(lp1303
g839
ag832
ag805
ag858
ag857
aa(lp1304
g832
ag839
ag857
ag858
ag836
aa(lp1305
g832
ag839
ag857
ag833
ag858
aa(lp1306
g832
ag839
ag857
ag858
ag836
aa(lp1307
g839
ag832
ag836
ag857
ag833
aa(lp1308
g839
ag832
ag836
ag857
ag833
aa(lp1309
g839
ag857
ag832
ag833
ag836
aa(lp1310
g839
ag857
ag832
ag833
ag836
aasg847
(g654
(g658
S'AR\xccR"A\xb1\xbf'
p1311
tp1312
Rp1313
g654
(g658
S'\xda\xa4A\x8dK\xbc\xba\xbf'
p1314
tp1315
Rp1316
tp1317
sg855
g856
ssI4
(dp1318
g2
(lp1319
I0
aI0
aI0
aI0
aI1
aI0
aI0
aI0
aI0
aI0
aI0
aI0
aI0
aI0
asg4
(lp1320
(g6
(S'\x00\x08\x1a\x00\x00\x00'
p1321
tp1322
Rp1323
g10
((lp1324
g12
ag13
a(lp1325
F0.5848322640792559
aF0.1618115419120073
aF0.012174123135991421
aF0.9165948011165835
aF0.9268963519656042
aF0.24715779233811586
aF0.345901842123468
aF0.753037583768154
aF0.1693532302569274
aF0.1984337953242129
aF0.19594967415833797
aF0.1775034371382932
aF0.6165324615240377
aF0.5517325884363166
aF0.1385096433539219
aF0.8538012794625115
aF0.45106241363952326
aF0.24490299963315165
aF0.20439442310215195
aF0.599845116610692
aF0.6076890900031913
aF0.4661672322293958
aF0.13227440536518364
atp1326
tp1327
a(g6
(S'\x00\x08\x1b\x00\x00\x00'
p1328
tp1329
Rp1330
g20
(lp1331
F0.809853919726229
aF0.8491514345535056
aF0.38602363995186106
aF0.8049555803427543
aF0.32075705746253746
aF0.2691543509438614
aF0.6631332715234678
aF0.11989857918202185
aF0.5480619653021397
aF0.39179766691504925
aF0.25741678615427555
aF0.4715240501926662
aF0.04794661394979716
aF0.07344848130101755
aF0.6361647620407688
aF0.7636149050282501
aF0.8992475558486984
aF0.15106593330420626
aF0.022744177495105378
aF0.26014040186094833
aF0.1637016991380259
aF0.7197648219102359
aF0.5546348145882544
atp1332
a(g6
(S'\x00\x08\x1f\x00\x00\x00'
p1333
tp1334
Rp1335
g10
((lp1336
g12
ag13
a(lp1337
F0.7650562205586683
aF0.6335465729873491
aF0.10466731428110998
aF0.3190198135159169
aF0.01111836154333945
aF0.27238315665526414
aF0.6660963438041113
aF0.539916169780368
aF0.436795876091404
aF0.07406723092749368
aF0.11394578802618294
aF0.5380520363764828
aF0.8084979247108177
aF0.48113733870817554
aF0.3170465241226521
aF0.33533261141444315
aF0.7940461689658813
aF0.2601691125586557
aF0.4767242255709274
aF0.7050650841903825
aF0.7342947937417326
aF0.3499350493352652
aF0.008372791572260785
atp1338
tp1339
a(g6
(S'\x00\x08 \x00\x00\x00'
p1340
tp1341
Rp1342
g20
(lp1343
F0.8973219213575387
aF0.42028499483733295
aF0.05240142780809098
aF0.5550213111758203
aF0.46310416213887984
aF0.5227109728444223
aF0.8715911633515445
aF0.00020354234643937819
aF0.1246846209405531
aF0.5909741586657803
aF0.9036346426416811
aF0.198698537479842
aF0.06361533167522548
aF0.18637233043241175
aF0.8122291024458607
aF0.06755467876277632
aF0.18685916888008414
aF0.889959322105479
aF0.726314784798223
aF0.9022799524770087
aF0.7729420308257791
aF0.4962609060049691
aF0.6159644573768485
atp1344
a(g6
(S'\x00\x08$\x00\x00\x00'
p1345
tp1346
Rp1347
g10
((lp1348
g12
ag13
a(lp1349
F0.10915980778259504
aF0.46162517139305936
aF0.06201304754724857
aF0.1319394240554408
aF0.333719160061563
aF0.9289654860654125
aF0.07696870476391116
aF0.8585761565128881
aF0.3588629977289758
aF0.11475722454338688
aF0.05260871803747447
aF0.4640009784104938
aF0.0011531006138568722
aF0.7287658618093011
aF0.4902530876692923
aF0.6134204967076021
aF0.057730447534973806
aF0.3244882077131025
aF0.08902151061222285
aF0.18417403731686044
aF0.33301373042218385
aF0.2930104287692389
aF0.003822611314685309
atp1350
tp1351
a(g6
(S'\x00\x08%\x00\x00\x00'
p1352
tp1353
Rp1354
g20
(lp1355
F0.9873781637613515
aF0.6072950751834268
aF0.1899595356309839
aF0.07549844195194677
aF0.9704371412290115
aF0.13182095053285714
aF0.7504661333745128
aF0.7203708600165106
aF0.23395282737734002
aF0.8235360591967147
aF0.5277520188824076
aF0.397387062551362
aF0.8280193721929338
aF0.35720959870223135
aF0.281149594684749
aF0.031228163488650762
aF0.7539469414237587
aF0.4018067957256686
aF0.3813696434108286
aF0.6320026965753559
aF0.8472564389216889
aF0.056331270211664064
aF0.1140319773625984
atp1356
a(g6
(S'\x00\x08)\x00\x00\x00'
p1357
tp1358
Rp1359
g10
((lp1360
g12
ag13
a(lp1361
F0.97879365301292
aF0.738639658210145
aF0.5414056705033932
aF0.40106398819332834
aF0.25921613798753573
aF0.9457345231225032
aF0.24253124874498444
aF0.029256634073805854
aF0.3358965597371335
aF0.730824163134494
aF0.4588265910542597
aF0.8978140404028955
aF0.02854536297385213
aF0.17062922969647198
aF0.17082475931993513
aF0.8256303323848199
aF0.8033063770250396
aF0.6786948722253109
aF0.4915253234024025
aF0.5463643846758393
aF0.5250725235062357
aF0.7310251821903906
aF0.43967127456846944
atp1362
tp1363
a(g6
(S'\x00\x08*\x00\x00\x00'
p1364
tp1365
Rp1366
g20
(lp1367
F0.2536084881633548
aF0.04888295725827907
aF0.4305049312182607
aF0.9053323011078639
aF0.8813416880194767
aF0.6033765792154357
aF0.7996161104962024
aF0.9275999389679235
aF0.7039698795341636
aF0.005121667000885233
aF0.8117544640155648
aF0.6475075320398298
aF0.13803904040329118
aF0.5873440089702261
aF0.5196349306656011
aF0.3845231972552595
aF0.6701781472699047
aF0.5624569947480248
aF0.2774498260611622
aF0.4651101961122912
aF0.17550354576551008
aF0.675666825485574
aF0.6333521211011287
atp1368
a(g6
(S'\x00\x08.\x00\x00\x00'
p1369
tp1370
Rp1371
g10
((lp1372
g12
ag13
a(lp1373
F0.12588745130256618
aF0.36011408770571274
aF0.9347399109298257
aF0.8437466060555529
aF0.8332492451105616
aF0.8147791645914945
aF0.7371725020088149
aF0.4059829970272344
aF0.8428487014464472
aF0.32057143232349916
aF0.04185324380615674
aF0.8961116546466408
aF0.16032689615790785
aF0.552277811681236
aF0.5446720761038929
aF0.5955809006082449
aF0.19213002429672144
aF0.32870598784855465
aF0.8592270192576468
aF0.09151443942701842
aF0.0771949212207641
aF0.03381019872167135
aF0.06449211621108686
atp1374
tp1375
a(g6
(S'\x00\x08/\x00\x00\x00'
p1376
tp1377
Rp1378
g20
(lp1379
F0.23598994036434418
aF0.7697079028302682
aF0.8290919711911624
aF0.8129494924820102
aF0.9021325538132469
aF0.5302908679766664
aF0.5275497229177972
aF0.49948538857167757
aF0.14861472140028686
aF0.5407294281056542
aF0.6957249242179531
aF0.3603278018715651
aF0.5731594338468481
aF0.9628312647936551
aF0.05618925661971097
aF0.9990719643546592
aF0.7742395794964502
aF0.5809201296330672
aF0.052168123889803075
aF0.04728340025235622
aF0.8593543887091486
aF0.6608114127161425
aF0.0418906320155541
atp1380
a(g6
(S'\x00\x083\x00\x00\x00'
p1381
tp1382
Rp1383
g10
((lp1384
g12
ag13
a(lp1385
F0.2433254975366519
aF0.7301236611468958
aF0.744758925173108
aF0.3762190873237077
aF0.5318330853709259
aF0.8797047274239316
aF0.1792976800780185
aF0.3480453936350043
aF0.7388437193487762
aF0.1966863339474696
aF0.43674051709375183
aF0.9840950911640395
aF0.4060388124289559
aF0.43406348211741497
aF0.010588273331212594
aF0.7291964761489633
aF0.7219768777575434
aF0.6677927500614154
aF0.2079982635643507
aF0.26281212842772594
aF0.24354779533554882
aF0.6291794853509749
aF0.8530636503197784
atp1386
tp1387
a(g6
(S'\x00\x084\x00\x00\x00'
p1388
tp1389
Rp1390
g20
(lp1391
F0.7140475932986642
aF0.7785408442793796
aF0.4660388069572913
aF0.5305875913273024
aF0.7805296681099604
aF0.38967126781367856
aF0.659611978328762
aF0.6068711300577599
aF0.09795717411823979
aF0.589098896476828
aF0.2350079825100887
aF0.9292547837350175
aF0.7027676156007526
aF0.4436743974045241
aF0.9671164839892817
aF0.3451522942561447
aF0.5512054847187657
aF0.6704630262245074
aF0.9628383202377578
aF0.1656819244786114
aF0.27384678503954374
aF0.646612825129872
aF0.45899936271250763
atp1392
a(g6
(S'\x00\x088\x00\x00\x00'
p1393
tp1394
Rp1395
g10
((lp1396
g12
ag13
a(lp1397
F0.13640066042761
aF0.35265890294094016
aF0.5743662003113501
aF0.5988855300221794
aF0.0811065648594691
aF0.42392568896189164
aF0.9101916293170785
aF0.84494269003099
aF0.7001293927142661
aF0.9079385762346985
aF0.6211651563439516
aF0.7379780323384451
aF0.5149792210630005
aF0.9900066692114938
aF0.9944584267532612
aF0.214126031266887
aF0.6699120000753651
aF0.1198974557673681
aF0.3144788003956539
aF0.9945116264411855
aF0.18841566764795992
aF0.11393750126947999
aF0.8778855001731825
atp1398
tp1399
a(g6
(S'\x00\x089\x00\x00\x00'
p1400
tp1401
Rp1402
g20
(lp1403
F0.6538546512959271
aF0.6650098881612729
aF0.5316504292588551
aF0.7646027611041374
aF0.25976024312691803
aF0.21026087389554848
aF0.6621415566048252
aF0.3335728081108066
aF0.7542248386075564
aF0.6510639458459786
aF0.5391206216911499
aF0.33321906987230565
aF0.6228111609856459
aF0.06322932454185648
aF0.43264459967149027
aF0.38732208434206394
aF0.15374247232971994
aF0.7711395943823887
aF0.35318692169290233
aF0.707939598663942
aF0.7992855830874855
aF0.6243851937951443
aF0.9209251492326167
atp1404
a(g6
(S'\x00\t\x01\x00\x00\x00'
p1405
tp1406
Rp1407
g10
((lp1408
g12
ag13
a(lp1409
F0.637621270490133
aF0.3016215956042677
aF0.9116850902035044
aF0.5724233578824848
aF0.7495513841106421
aF0.2897263888974311
aF0.9740980733066659
aF0.8191298050598571
aF0.6636612071981847
aF0.7207330164691651
aF0.5420555626085645
aF0.9762244917977484
aF0.21716275202654045
aF0.23862641878876645
aF0.9359565180412337
aF0.579128714659429
aF0.14022440513977463
aF0.3801341789010759
aF0.8536291472170744
aF0.9575590690946036
aF0.41887795000084205
aF0.3621083315745579
aF0.6757662070418113
atp1410
tp1411
a(g6
(S'\x00\t\x02\x00\x00\x00'
p1412
tp1413
Rp1414
g20
(lp1415
F0.4651145383240207
aF0.826983179148724
aF0.573657690231883
aF0.5351977337575056
aF0.021684327620004384
aF0.23071163290470276
aF0.4263459959194247
aF0.9148026364578934
aF0.8460387137148089
aF0.7962238468122367
aF0.7394810237174764
aF0.8046497777657595
aF0.5423697559962921
aF0.3069775797309725
aF0.31552190153513593
aF0.7166108717781703
aF0.622806321185188
aF0.9513900921228895
aF0.9955957603297914
aF0.8012637918407994
aF0.6278578117984099
aF0.8213339910487248
aF0.40132193557630536
atp1416
a(g6
(S'\x00\t\x06\x00\x00\x00'
p1417
tp1418
Rp1419
g10
((lp1420
g12
ag13
a(lp1421
F0.027318916695611373
aF0.09385398656399313
aF0.15600886356871735
aF0.7558047225369764
aF0.4851580740936805
aF0.9289416099226072
aF0.2947328058819422
aF0.08789068448744075
aF0.25024438916851444
aF0.14530216045939892
aF0.13634610775188316
aF0.9872863762714026
aF0.1197028744030797
aF0.6002487245688043
aF0.9523535043051579
aF0.4035555025046723
aF0.9505414357259906
aF0.2456359789875645
aF0.5349254625974396
aF0.6542959640844623
aF0.21261147531300262
aF0.9902289224049975
aF0.8134372212767315
atp1422
tp1423
a(g6
(S'\x00\t\x07\x00\x00\x00'
p1424
tp1425
Rp1426
g20
(lp1427
F0.45711253054301926
aF0.36574568716560063
aF0.2934441388303567
aF0.7070457678679194
aF0.6056964150866583
aF0.48839837133441133
aF0.8858978537150174
aF0.889031240645759
aF0.20694091197371167
aF0.4331335553748017
aF0.24333089248622986
aF0.41246926479448087
aF0.39006000978684063
aF0.5625424131652248
aF0.49396151152234535
aF0.6679151400016126
aF0.7479576542419583
aF0.49877190778629166
aF0.6420786872208584
aF0.008645804123930012
aF0.7011301223728739
aF0.5223668515404686
aF0.08976132572797035
atp1428
a(g6
(S'\x00\t\x0b\x00\x00\x00'
p1429
tp1430
Rp1431
g10
((lp1432
g12
ag13
a(lp1433
F0.683555323286683
aF0.10912747724337368
aF0.8355066334058092
aF0.7018553092673299
aF0.014259402073258265
aF0.18229449530890385
aF0.19938134978378408
aF0.8820368411089061
aF0.5512360807524902
aF0.6748079704628565
aF0.7232691737293648
aF0.7115277006217899
aF0.24899132911408073
aF0.9933711735858163
aF0.91839028864446
aF0.2044511230331335
aF0.9109471543349303
aF0.9012237176157122
aF0.7879725824921028
aF0.591015946957496
aF0.29812769286162244
aF0.4498544322808218
aF0.8029455495496337
atp1434
tp1435
a(g6
(S'\x00\t\x0c\x00\x00\x00'
p1436
tp1437
Rp1438
g20
(lp1439
F0.9379824641814348
aF0.41627099920995736
aF0.3096655448084996
aF0.623452660259332
aF0.8585521850584895
aF0.31679374359123524
aF0.5582847219991064
aF0.4078750708830218
aF0.504045171408502
aF0.45816158602824963
aF0.5420532084687659
aF0.15627240746500237
aF0.5445103628144844
aF0.1937487064262059
aF0.20171407335627467
aF0.2678514725558292
aF0.10917001023831374
aF0.36727550628922934
aF0.1795491129718726
aF0.30303353586052717
aF0.6190298794426525
aF0.2289779896656099
aF0.807240915408782
atp1440
a(g6
(S'\x00\t\x10\x00\x00\x00'
p1441
tp1442
Rp1443
g10
((lp1444
g12
ag13
a(lp1445
F0.1434496665976991
aF0.8198433015230827
aF0.8986957243080866
aF0.5845620753375407
aF0.22267464856948438
aF0.3935591514483775
aF0.04642334262188663
aF0.46451977583792914
aF0.8004936625741422
aF0.006086668096188297
aF0.026343492264997104
aF0.24269119594654975
aF0.5951836124597084
aF0.11182004389556366
aF0.8959548912172816
aF0.6585940247332988
aF0.1285701720843564
aF0.38611722657927106
aF0.5096529940399102
aF0.8545845322043923
aF0.7186757979803378
aF0.42798634582837336
aF0.028518952578339363
atp1446
tp1447
a(g6
(S'\x00\t\x11\x00\x00\x00'
p1448
tp1449
Rp1450
g20
(lp1451
F0.9900587458921882
aF0.34082306026792675
aF0.8567685988040233
aF0.7889602659868995
aF0.5137318872359098
aF0.30823461186454615
aF0.048916408253487864
aF0.09528136749527472
aF0.40359358276021995
aF0.24184766958901305
aF0.11589519856546904
aF0.26844131733123744
aF0.8598754596043737
aF0.3972852514193115
aF0.010025052377345522
aF0.03745579730481585
aF0.7838221922202376
aF0.018553242481279875
aF0.4025334553767409
aF0.7744235311378768
aF0.9608008302587927
aF0.6669884609123272
aF0.0673817548196145
atp1452
a(g6
(S'\x00\t\x15\x00\x00\x00'
p1453
tp1454
Rp1455
g10
((lp1456
g12
ag13
a(lp1457
F0.35402106540846956
aF0.581246004997019
aF0.5324551061585434
aF0.6445513704665942
aF0.5963095251131632
aF0.5255630264891458
aF0.6140423333991338
aF0.5045651025090803
aF0.015546862274146145
aF0.5903003989300653
aF0.9117978950627901
aF0.5847642568697066
aF0.790564993975728
aF0.8896279432870858
aF0.37659546421889356
aF0.2809747677294736
aF0.7063846474997304
aF0.29790901229448863
aF0.3851604572108781
aF0.18201269389180752
aF0.35465307833726223
aF0.606813224391651
aF0.6330180144783255
atp1458
tp1459
a(g6
(S'\x00\t\x16\x00\x00\x00'
p1460
tp1461
Rp1462
g20
(lp1463
F0.14820518800412963
aF0.13370974535092783
aF0.06729588537963993
aF0.848861118774917
aF0.7398367360277037
aF0.1346495900465875
aF0.25061689876642745
aF0.6234270789626448
aF0.6331884132348119
aF0.38262778466424596
aF0.5427949445175232
aF0.48980698724132543
aF0.6413426354565919
aF0.18457218218821836
aF0.9014592519670891
aF0.5937690349272322
aF0.6831891148141563
aF0.3548898864650256
aF0.307166586061844
aF0.7204959307856292
aF0.15805049255517623
aF0.06910424624841371
aF0.08350968025695238
atp1464
a(g6
(S'\x00\t\x1a\x00\x00\x00'
p1465
tp1466
Rp1467
g10
((lp1468
g12
ag13
a(lp1469
F0.6433949198734691
aF0.4899464196500054
aF0.35296074885129214
aF0.6240843069717568
aF0.21455766149977484
aF0.8083697180707813
aF0.8303735680527001
aF0.612510245521541
aF0.9923810321275
aF0.09740442076292932
aF0.14403071872174034
aF0.9888731812960517
aF0.6340462059740443
aF0.27552700699568355
aF0.1344556827164839
aF0.8516472586348215
aF0.9672784102905158
aF0.09443486171978177
aF0.5636546811610132
aF0.6299028873266477
aF0.12649071897581587
aF0.8545543096929847
aF0.5710777853137264
atp1470
tp1471
a(g6
(S'\x00\t\x1b\x00\x00\x00'
p1472
tp1473
Rp1474
g20
(lp1475
F0.16966877130731772
aF0.17198477517830957
aF0.2448393166952274
aF0.09117029537367227
aF0.5436361050076155
aF0.4701420495215416
aF0.3703077513113977
aF0.2515824314421766
aF0.7356747076372514
aF0.19371370795662957
aF0.7510420983600576
aF0.33305570835765386
aF0.9037227644093225
aF0.10382508148072322
aF0.36357075043725484
aF0.22558997184291996
aF0.7373108084239558
aF0.5668170394024092
aF0.8976550971468242
aF0.36129827857699814
aF0.8183150752123035
aF0.8329131659219043
aF0.6511282596293889
atp1476
a(g6
(S'\x00\t\x1f\x00\x00\x00'
p1477
tp1478
Rp1479
g10
((lp1480
g12
ag13
a(lp1481
F0.5773986143461676
aF0.12493895290602874
aF0.4846754774584131
aF0.5063607148447157
aF0.3644881839157904
aF0.541898715783808
aF0.6086405891644148
aF0.917872455333636
aF0.4367209473860656
aF0.6776810536063569
aF0.04717693791467503
aF0.4529483171003178
aF0.08026309699111234
aF0.16298432147563346
aF0.7160190047481129
aF0.6965864883263847
aF0.42593606746424173
aF0.5585843915724829
aF0.36851430405821484
aF0.41777483748740485
aF0.1026151233564091
aF0.23576353194003818
aF0.3455463611458228
atp1482
tp1483
a(g6
(S'\x00\t \x00\x00\x00'
p1484
tp1485
Rp1486
g20
(lp1487
F0.29333031653172237
aF0.2854513530277374
aF0.760751163939839
aF0.647834084664175
aF0.7968261795658912
aF0.693031017451702
aF0.34826976689566824
aF0.22542478502223018
aF0.9773233865404904
aF0.7941887675524185
aF0.5487262599480723
aF0.017060355174002506
aF0.2149806804082376
aF0.20058602702830952
aF0.11354928516932417
aF0.8699194317525342
aF0.13842223866845582
aF0.9332782806943231
aF0.24333328796753761
aF0.22919266288900808
aF0.6057768427648771
aF0.5944905273301632
aF0.034688512277650574
atp1488
asg167
(dp1489
I1
(lp1490
(lp1491
S'121,135,10,148,151'
p1492
aa(lp1493
S'100,149,157,149,157'
p1494
aasI2
(lp1495
(lp1496
S'95,126,129,126,129'
p1497
aS'69,89,228,112,177'
p1498
aS'51,38,203,140,140'
p1499
aS'73,35,207,35,207'
p1500
aa(lp1501
S'87,132,68,132,68'
p1502
aS'115,157,123,157,123'
p1503
aS'68,167,137,167,137'
p1504
aasI3
(lp1505
(lp1506
S'123,201,216,150,166'
p1507
aa(lp1508
S'72,119,124,119,124'
p1509
aS'128,117,122,117,122'
p1510
aasI4
(lp1511
(lp1512
S'73,23,216,146,120'
p1513
aa(lp1514
S'87,109,102,109,102'
p1515
aasI5
(lp1516
(lp1517
S'73,23,216,186,171'
p1518
aS'115,126,180,193,34'
p1519
aS'95,95,198,135,132'
p1520
aS'98,73,142,130,70'
p1521
aS'87,109,102,109,102'
p1522
aS'102,106,106,106,106'
p1523
aS'107,169,10,169,10'
p1524
aa(lp1525
S'65,129,124,129,124'
p1526
aS'114,115,44,115,44'
p1527
aasI6
(lp1528
(lp1529
S'73,154,85,154,85'
p1530
aS'121,85,145,113,94'
p1531
aS'118,245,80,149,63'
p1532
aa(lp1533
S'82,119,55,119,55'
p1534
aS'116,103,57,103,57'
p1535
aS'76,133,56,133,56'
p1536
aS'106,119,29,119,29'
p1537
aasI7
(lp1538
(lp1539
S'62,136,91,124,46'
p1540
aS'66,74,117,106,65'
p1541
aS'95,87,120,150,57'
p1542
aS'121,94,113,160,38'
p1543
aS'3,64,376,74,273'
p1544
aS'6,59,232,59,232'
p1545
aa(lp1546
S'61,244,65,143,53'
p1547
aS'82,115,27,115,27'
p1548
aS'114,111,22,111,22'
p1549
aS'94,97,45,97,45'
p1550
aS'102,97,43,97,43'
p1551
aS'117,114,16,114,16'
p1552
aS'119,112,12,112,12'
p1553
aS'95,150,57,150,57'
p1554
aS'111,124,14,124,14'
p1555
aS'86,159,21,159,21'
p1556
aS'96,156,21,156,21'
p1557
aS'105,159,23,159,23'
p1558
aS'113,160,26,160,26'
p1559
aasI8
(lp1560
(lp1561
S'73,13,181,114,79'
p1562
aS'66,63,134,76,89'
p1563
aS'74,34,121,91,75'
p1564
aS'118,207,40,122,42'
p1565
aa(lp1566
S'73,114,79,114,79'
p1567
aS'65,103,70,103,70'
p1568
aS'102,74,62,74,62'
p1569
aS'76,109,54,109,54'
p1570
aS'78,106,58,106,58'
p1571
aS'101,102,39,102,39'
p1572
aS'122,106,43,106,43'
p1573
aS'128,110,41,110,41'
p1574
aasI9
(lp1575
(lp1576
S'139,121,53,218,91'
p1577
aS'140,131,49,280,122'
p1578
aS'142,137,50,264,129'
p1579
aS'143,132,60,270,141'
p1580
aS'145,167,60,257,136'
p1581
aS'170,183,29,254,146'
p1582
aS'137,188,31,249,141'
p1583
aS'136,206,23,254,126'
p1584
aS'162,148,53,247,134'
p1585
aS'130,175,48,243,123'
p1586
aS'133,185,48,290,133'
p1587
aS'131,194,51,255,133'
p1588
aS'163,175,59,270,152'
p1589
aS'134,190,56,250,129'
p1590
aS'141,132,100,246,108'
p1591
aS'161,161,92,258,120'
p1592
aS'138,178,64,276,138'
p1593
aS'132,217,61,260,130'
p1594
aa(lp1595
S'147,231,97,231,97'
p1596
aS'156,279,143,279,143'
p1597
aS'167,267,152,267,152'
p1598
aS'176,265,156,265,156'
p1599
aS'150,282,132,282,132'
p1600
aS'171,299,126,299,126'
p1601
aasI10
(lp1602
(lp1603
S'92,207,39,108,43'
p1604
aS'61,253,69,116,14'
p1605
aS'118,233,44,62,10'
p1606
aS'59,207,48,76,17'
p1607
aS'83,230,68,72,12'
p1608
aS'70,210,62,51,30'
p1609
aS'60,213,69,52,7'
p1610
aS'68,181,83,52,7'
p1611
aS'73,14,150,70,9'
p1612
aS'101,126,30,126,30'
p1613
aS'108,125,24,125,24'
p1614
aS'106,107,29,107,29'
p1615
aS'114,110,28,110,28'
p1616
aS'119,113,25,113,25'
p1617
aS'117,113,17,113,17'
p1618
aa(lp1619
S'106,108,29,107,29'
p1620
aS'117,113,17,113,17'
p1621
aS'119,113,25,113,25'
p1622
aS'82,105,33,105,33'
p1623
aS'94,105,35,105,35'
p1624
aS'114,110,28,110,28'
p1625
aS'125,107,35,107,35'
p1626
aS'97,104,25,104,25'
p1627
aS'116,96,33,96,33'
p1628
aS'88,131,21,131,21'
p1629
aS'111,133,20,133,20'
p1630
aS'128,139,24,139,24'
p1631
aasI11
(lp1632
(lp1633
S'4,79,84,73,254'
p1634
aS'25,52,87,57,247'
p1635
aS'43,108,89,93,270'
p1636
aS'36,82,99,78,313'
p1637
aS'38,74,106,75,321'
p1638
aS'21,59,102,73,303'
p1639
aS'37,87,115,81,266'
p1640
aS'32,61,125,73,315'
p1641
aS'41,84,129,62,347'
p1642
aS'44,60,119,84,335'
p1643
aS'23,32,129,71,345'
p1644
aS'24,25,136,87,345'
p1645
aS'34,71,138,75,311'
p1646
aS'19,64,137,75,332'
p1647
aS'1,44,141,70,339'
p1648
aS'35,45,139,90,340'
p1649
aS'40,66,151,77,332'
p1650
aS'27,78,157,85,385'
p1651
aS'48,88,182,84,333'
p1652
aa(lp1653
S'6,49,250,49,250'
p1654
aS'52,63,243,63,243'
p1655
aS'13,78,242,78,242'
p1656
aS'31,82,268,82,268'
p1657
aS'10,50,291,50,291'
p1658
aS'5,84,278,84,278'
p1659
aS'43,93,270,93,270'
p1660
aS'49,92,271,92,271'
p1661
aS'14,75,344,75,344'
p1662
aasI12
(lp1663
(lp1664
S'73,10,173,96,23'
p1665
aS'71,48,139,88,33'
p1666
aS'74,52,102,82,16'
p1667
aS'37,100,134,100,134'
p1668
aS'121,79,129,81,-2'
p1669
aS'66,61,116,88,27'
p1670
aS'62,106,91,96,21'
p1671
aS'123,120,91,81,24'
p1672
aS'110,121,82,77,31'
p1673
aS'95,73,94,88,21'
p1674
aS'115,91,107,91,107'
p1675
aS'124,86,108,86,108'
p1676
aS'98,76,90,76,90'
p1677
aa(lp1678
S'117,86,29,86,29'
p1679
aS'119,90,34,90,34'
p1680
aS'82,80,44,80,44'
p1681
aS'106,84,42,84,42'
p1682
aS'114,86,41,86,41'
p1683
aS'97,78,40,78,40'
p1684
aS'94,81,48,81,48'
p1685
aS'116,75,45,75,45'
p1686
aasI13
(lp1687
(lp1688
S'73,10,180,92,24'
p1689
aS'121,72,141,84,14'
p1690
aS'71,47,135,47,11'
p1691
aS'115,86,119,60,18'
p1692
aS'124,70,113,62,14'
p1693
aS'66,59,111,56,6'
p1694
aS'74,48,106,70,2'
p1695
aS'104,34,98,78,16'
p1696
aS'62,101,80,87,24'
p1697
aS'67,50,91,80,28'
p1698
aS'69,50,86,80,27'
p1699
aS'87,54,76,79,24'
p1700
aS'109,53,76,78,26'
p1701
aS'81,49,84,78,26'
p1702
aS'4,68,88,79,17'
p1703
aS'95,71,83,87,20'
p1704
aS'123,101,80,101,80'
p1705
aS'120,69,86,69,86'
p1706
aS'98,76,82,76,82'
p1707
aa(lp1708
S'128,103,26,103,26'
p1709
aS'88,96,28,96,28'
p1710
aS'111,97,29,97,29'
p1711
aS'101,90,36,90,36'
p1712
aS'108,91,36,91,36'
p1713
aS'117,77,32,77,32'
p1714
aS'97,74,40,74,40'
p1715
aS'119,77,40,77,40'
p1716
aS'122,84,44,84,44'
p1717
aassg652
(lp1718
(g654
(g658
S'\xc3\x1e\xcf\xdb \xad\xbe\xbf'
p1719
tp1720
Rp1721
g654
(g658
S'\xdf\xf0qf\xd7\x1a\x8f\xbf'
p1722
tp1723
Rp1724
tp1725
a(g654
(g658
S'\xbai,@S\xc1\xbe\xbf'
p1726
tp1727
Rp1728
g654
(g658
S'\xd9\x94\xe90x\xc1r?'
p1729
tp1730
Rp1731
tp1732
a(g654
(g658
S'\xd1\x96R\xaf}\xe1\xb7\xbf'
p1733
tp1734
Rp1735
g654
(g658
S'\xa4}\xb6p=\x9b\xa1?'
p1736
tp1737
Rp1738
tp1739
a(g654
(g658
S'K\xd5x~\xd7p\xbb\xbf'
p1740
tp1741
Rp1742
g654
(g658
S'T\xf5\xc7\xba\xf1\xef\xb1?'
p1743
tp1744
Rp1745
tp1746
a(g654
(g658
S'\xd1\x96R\xaf}\xe1\xb7\xbf'
p1747
tp1748
Rp1749
g654
(g658
S'\xa4}\xb6p=\x9b\xa1?'
p1750
tp1751
Rp1752
tp1753
a(g654
(g658
S'\xbdv\xe4Z*\r\xaf\xbf'
p1754
tp1755
Rp1756
g654
(g658
S'\x1cxl\xb5\xfc\xc6\xac?'
p1757
tp1758
Rp1759
tp1760
a(g654
(g658
S'H\xa1\xf8\x87\x86\xc7s\xbf'
p1761
tp1762
Rp1763
g654
(g658
S'\xe2\xcd\xdc{\x02,\xb4?'
p1764
tp1765
Rp1766
tp1767
a(g654
(g658
S'uh\x86\xfe9\xca\x85?'
p1768
tp1769
Rp1770
g654
(g658
S'm\xe2W"\xc3?\xbb?'
p1771
tp1772
Rp1773
tp1774
a(g654
(g658
S'|\xa1\xe3F\x04v\xa7?'
p1775
tp1776
Rp1777
g654
(g658
S'\xd0\xc2\xda\xbc"\xb1\xc4?'
p1778
tp1779
Rp1780
tp1781
a(g654
(g658
S'=3\xeaR.y\xba?'
p1782
tp1783
Rp1784
g654
(g658
S'\x14B_\xfa\xf5#\xc0?'
p1785
tp1786
Rp1787
tp1788
a(g654
(g658
S's\xfa)\x1e&h\xba?'
p1789
tp1790
Rp1791
g654
(g658
S'\x98\xc5\xa3\x15\x07\x84\xc1?'
p1792
tp1793
Rp1794
tp1795
a(g654
(g658
S'\xb8Q[8\xb1\xd4\xbc?'
p1796
tp1797
Rp1798
g654
(g658
S'(FVb&\xe1\xc2?'
p1799
tp1800
Rp1801
tp1802
a(g654
(g658
S'%y\x97\x062\x8c\xbf?'
p1803
tp1804
Rp1805
g654
(g658
S'&\x1fi\r|\xf9\xc6?'
p1806
tp1807
Rp1808
tp1809
a(g654
(g658
S'\x1dn\xc3\x9b\xfd\xed\xc1?'
p1810
tp1811
Rp1812
g654
(g658
S'\xf8_\xb5\xc4-\x88\xc9?'
p1813
tp1814
Rp1815
tp1816
asg752
(lp1817
g654
(g658
S'\xe2\xe9\xd7\xfb\xb3C\xed?'
p1818
tp1819
Rp1820
ag654
(g658
S'\x93G\xe0\xae\x11L\xed?'
p1821
tp1822
Rp1823
ag654
(g658
S'\x86\x94y\xafC\x1b\xed?'
p1824
tp1825
Rp1826
ag654
(g658
S'n+\xb2\xa4\xbf\x89\xed?'
p1827
tp1828
Rp1829
ag654
(g658
S'\xab\xb0\xa7\xb9\x95\xdd\xed?'
p1830
tp1831
Rp1832
ag654
(g658
S'n+\xb2\xa4\xbf\x89\xed?'
p1833
tp1834
Rp1835
ag654
(g658
S'\x95\xab~\xd8$\x8c\xed?'
p1836
tp1837
Rp1838
ag654
(g658
S'\xab\xb3\xa1\xc5}\r\xee?'
p1839
tp1840
Rp1841
ag654
(g658
S'[\xb9\xfcu\x83h\xee?'
p1842
tp1843
Rp1844
ag654
(g658
S'\xbd\xc1\xb8\xca\xa6\xee\xee?'
p1845
tp1846
Rp1847
ag654
(g658
S'\x95D\xe6\xa2)\x1c\xef?'
p1848
tp1849
Rp1850
ag654
(g658
S'm\xc7\x13{\xacI\xef?'
p1851
tp1852
Rp1853
ag654
(g658
S'\x95D\xe6\xa2)\x1c\xef?'
p1854
tp1855
Rp1856
ag654
(g658
S'3<*N\x06\x96\xee?'
p1857
tp1858
Rp1859
ag654
(g658
S'\x15o\xbb"T\xf1\xee?'
p1860
tp1861
Rp1862
asg796
(dp1863
g798
g799
sg800
g801
sg806
g807
sg808
(lp1864
(lp1865
asg811
g6
(S'\x00\x00\x00\x00\x00\x00'
p1866
tp1867
Rp1868
sg815
g816
ssg824
(lp1869
g826
a(lp1870
g802
ag866
ag833
ag828
ag839
aa(lp1871
g802
ag832
ag860
ag836
ag829
aa(lp1872
g832
ag860
ag836
ag829
ag857
aa(lp1873
g832
ag836
ag860
ag829
ag866
aa(lp1874
g832
ag860
ag836
ag829
ag857
aa(lp1875
g832
ag836
ag829
ag857
ag839
aa(lp1876
g832
ag836
ag839
ag829
ag857
aa(lp1877
g832
ag836
ag829
ag839
ag857
aa(lp1878
g832
ag836
ag829
ag839
ag833
aa(lp1879
g836
ag832
ag829
ag839
ag833
aa(lp1880
g832
ag829
ag839
ag836
ag833
aa(lp1881
g832
ag836
ag829
ag833
ag839
aa(lp1882
g836
ag832
ag829
ag839
ag833
aa(lp1883
g836
ag832
ag829
ag839
ag833
aasg847
(g654
(g658
S'AR\xccR"A\xb1\xbf'
p1884
tp1885
Rp1886
g654
(g658
S'\xda\xa4A\x8dK\xbc\xba\xbf'
p1887
tp1888
Rp1889
tp1890
sg855
g856
ssI5
(dp1891
g2
(lp1892
I0
aI0
aI0
aI0
aI0
aI0
aI0
aI1
asg4
(lp1893
(g6
(S'\x00\x08\x1a\x00\x00\x00'
p1894
tp1895
Rp1896
g10
((lp1897
g12
ag13
a(lp1898
F0.7966445662580458
aF0.8965975439514358
aF0.13889250593187374
aF0.8337507744067374
aF0.6538441756408909
aF0.13157786113155912
aF0.915300042281237
aF0.4029304711863422
aF0.7951007353006494
aF0.652958700645598
aF0.02426424479361977
aF0.8551020796260876
aF0.2164750872169563
aF0.1827218306175048
aF0.2568969585582973
aF0.6254600057564892
aF0.7335453902627317
aF0.3682715405696959
aF0.16895738058449872
aF0.316262659005757
aF0.22119859229353966
aF0.6818334234571197
aF0.9129571584420844
atp1899
tp1900
a(g6
(S'\x00\x08\x1b\x00\x00\x00'
p1901
tp1902
Rp1903
g20
(lp1904
F0.7480534528323146
aF0.16197963711674168
aF0.895781601003441
aF0.041598049837271445
aF0.9520342684126837
aF0.9253862616018834
aF0.6103779207579263
aF0.872673284404849
aF0.5267665467626361
aF0.14054071763475617
aF0.17671659516321803
aF0.8750822588630521
aF0.05183268090058324
aF0.5841525322450843
aF0.30018886998207717
aF0.20883507694083792
aF0.22090485464591458
aF0.6026067870747607
aF0.7872375466622182
aF0.5267908430546148
aF0.9063411757296168
aF0.10722926599838067
aF0.4988757363904881
atp1905
a(g6
(S'\x00\x08\x1f\x00\x00\x00'
p1906
tp1907
Rp1908
g10
((lp1909
g12
ag13
a(lp1910
F0.11197688848150444
aF0.3648503266139864
aF0.2081004306356682
aF0.023243455288998405
aF0.11059886769446958
aF0.40340267523574214
aF0.4407510418544617
aF0.38822525816582065
aF0.9441520140695195
aF0.0986222087052564
aF0.8048381827819115
aF0.9127552411651398
aF0.21701211444926471
aF0.6326139640961898
aF0.5604048714994295
aF0.9881357997085909
aF0.7256260970717514
aF0.12739200551934238
aF0.07858238287789454
aF0.7417692824461246
aF0.4718008886117192
aF0.24752711573662445
aF0.4050517887635511
atp1911
tp1912
a(g6
(S'\x00\x08 \x00\x00\x00'
p1913
tp1914
Rp1915
g20
(lp1916
F0.10272307227802946
aF0.8645539515632057
aF0.4856989546067795
aF0.5390309720873138
aF0.22183862263586152
aF0.9190800001581584
aF0.8049841308065204
aF0.06430715722697222
aF0.2769385316916342
aF0.42663482945325715
aF0.6200111028013527
aF0.09678375849037091
aF0.7655554495287534
aF0.18389499772410467
aF0.016408045914442226
aF0.4140363320985093
aF0.6574505848163857
aF0.9254234712564003
aF0.21523118744902947
aF0.31696815707045956
aF0.8183978040223063
aF0.16906748019888118
aF0.5346382068518507
atp1917
a(g6
(S'\x00\x08$\x00\x00\x00'
p1918
tp1919
Rp1920
g10
((lp1921
g12
ag13
a(lp1922
F0.6259424200813615
aF0.7768493731460251
aF0.022996107150717093
aF0.9106121370307455
aF0.6846678259218261
aF0.18847049375283997
aF0.31666234566069884
aF0.020743283545916147
aF0.6408396054806891
aF0.4052912036943872
aF0.7055205079358795
aF0.20839110401060068
aF0.5836159466474455
aF0.4386818590385456
aF0.9952298191036546
aF0.5792132217746663
aF0.9816672330358729
aF0.0057696763061793055
aF0.5830548733970804
aF0.2760217091279097
aF0.9446573932010242
aF0.4726277426519857
aF0.3896117431921323
atp1923
tp1924
a(g6
(S'\x00\x08%\x00\x00\x00'
p1925
tp1926
Rp1927
g20
(lp1928
F0.4092486877742004
aF0.4826262580654046
aF0.2872791165577747
aF0.541107403054838
aF0.5311342432743534
aF0.40608618876510716
aF0.154536240084315
aF0.6847924866056577
aF0.009508864508638082
aF0.828319423550412
aF0.7858355797646909
aF0.2345228966645757
aF0.6920942868418895
aF0.7716099113439914
aF0.60056337703637
aF0.21162215535283224
aF0.0621214875703453
aF0.2983024453871218
aF0.29221283348615945
aF0.9242325808631278
aF0.24400264891414147
aF0.22963291699338562
aF0.407807819783341
atp1929
a(g6
(S'\x00\x08)\x00\x00\x00'
p1930
tp1931
Rp1932
g10
((lp1933
g12
ag13
a(lp1934
F0.3390391798770481
aF0.7630039564920849
aF0.7135248379902243
aF0.2769222206236359
aF0.29798909407281526
aF0.30285809531283403
aF0.3793528647388188
aF0.9112241960271432
aF0.9888874622551425
aF0.17514197972790624
aF0.19907870829177965
aF0.3748730294496335
aF0.9549891588451535
aF0.3974529451091855
aF0.24223923125119173
aF0.09640727613534106
aF0.34289598303397273
aF0.20653255007838445
aF0.7691694196391544
aF0.5278283777547331
aF0.14064272751797702
aF0.47222499393977047
aF0.9770421112364971
atp1935
tp1936
a(g6
(S'\x00\x08*\x00\x00\x00'
p1937
tp1938
Rp1939
g20
(lp1940
F0.2710445283505273
aF0.6661039466639006
aF0.043891396924031545
aF0.2916654071883601
aF0.3925437094874008
aF0.03186322297545108
aF0.5191488891147004
aF0.01726641631296222
aF0.8960162130618203
aF0.8461885523694208
aF0.5624715033575118
aF0.14197250483810142
aF0.7392360642192176
aF0.07084921499054664
aF0.07302481169765807
aF0.17881064471453512
aF0.059974633484081386
aF0.7966352127002809
aF0.8465200117043525
aF0.7026229062884928
aF0.39176261483097574
aF0.15964330852576358
aF0.7209248428231178
atp1941
a(g6
(S'\x00\x08.\x00\x00\x00'
p1942
tp1943
Rp1944
g10
((lp1945
g12
ag13
a(lp1946
F0.5693554505497519
aF0.4910683108101239
aF0.30309397439431385
aF0.8092906222266528
aF0.016215145467396552
aF0.14324811507298219
aF0.2805054982924483
aF0.47383378150990774
aF0.728190827229139
aF0.6120328062797258
aF0.49980115866089847
aF0.5414029981657942
aF0.18295732297156098
aF0.975988890976544
aF0.3724599877527238
aF0.3839303372948074
aF0.35145154060638084
aF0.04631970799928897
aF0.9602544995533582
aF0.8258460907589393
aF0.18885443296018956
aF0.19319591107059908
aF0.07384545648672858
atp1947
tp1948
a(g6
(S'\x00\x08/\x00\x00\x00'
p1949
tp1950
Rp1951
g20
(lp1952
F0.47144120251236843
aF0.4161535405159982
aF0.22129690918618772
aF0.522126224776967
aF0.8790717742353942
aF0.24945300129275072
aF0.956120965553013
aF0.5643661786764131
aF0.2189487805513729
aF0.9897524092955333
aF0.3564697598095472
aF0.6114022215621514
aF0.2640418146775164
aF0.1947237663162198
aF0.5752005014932494
aF0.06040657847812503
aF0.7909763114080414
aF0.5891960645992498
aF0.801986419016004
aF0.6638844458732898
aF0.59812107969847
aF0.8257531485521065
aF0.6461809305384435
atp1953
a(g6
(S'\x00\x083\x00\x00\x00'
p1954
tp1955
Rp1956
g10
((lp1957
g12
ag13
a(lp1958
F0.1704744761098157
aF0.04524199236843485
aF0.011651728040091625
aF0.58163834788141
aF0.3020440975248987
aF0.07952044167281191
aF0.5054498382857554
aF0.327361485021365
aF0.1548675464173943
aF0.37794971983385384
aF0.8564327739727203
aF0.33538676476093443
aF0.24764686178425344
aF0.7462998091481919
aF0.10289832447407532
aF0.5022930000388284
aF0.9015637268174878
aF0.898676007688477
aF0.09545422235096412
aF0.14240266832146542
aF0.6557882368210141
aF0.008335592192980412
aF0.29126938377678424
atp1959
tp1960
a(g6
(S'\x00\x084\x00\x00\x00'
p1961
tp1962
Rp1963
g20
(lp1964
F0.7531781857929879
aF0.9788116318368263
aF0.253172423133343
aF0.0021426059291210775
aF0.6456910076502801
aF0.4597343071030372
aF0.6788753771375011
aF0.36136555401614423
aF0.9216809253007547
aF0.8327995715768243
aF0.8273344105573986
aF0.09900041343759147
aF0.9851600468545937
aF0.2113449168908903
aF0.09003852198751194
aF0.5982460019930115
aF0.12886635060941465
aF0.7725737681210394
aF0.5885923279191431
aF0.07817972840458676
aF0.353506601263755
aF0.9199432716601547
aF0.19419492725808618
atp1965
a(g6
(S'\x00\x088\x00\x00\x00'
p1966
tp1967
Rp1968
g10
((lp1969
g12
ag13
a(lp1970
F0.38756268480958944
aF0.852979683860589
aF0.04796721925096259
aF0.7209368151158065
aF0.3896253407016922
aF0.23436024638222275
aF0.5565657584361726
aF0.9644204004849245
aF0.15300282944112786
aF0.3739369279117135
aF0.7364498909178099
aF0.6562888242497491
aF0.9629895197147085
aF0.8067172590935776
aF0.7507705030817514
aF0.3616801141102126
aF0.5966539010186481
aF0.4992228990166686
aF0.29762703395404877
aF0.3881978759887157
aF0.41829177160426967
aF0.09004261525751911
aF0.3646812645748937
atp1971
tp1972
a(g6
(S'\x00\x089\x00\x00\x00'
p1973
tp1974
Rp1975
g20
(lp1976
F0.290634972602444
aF0.03583867819626696
aF0.48573660242268335
aF0.51768295249934
aF0.28879224822995053
aF0.1396902414379806
aF0.26002472761796414
aF0.15871728448294775
aF0.0015388687714054106
aF0.8721446994072581
aF0.7533670351054623
aF0.8949906252640627
aF0.8977995319809617
aF0.5219073835615125
aF0.1052221938086042
aF0.7231980639857415
aF0.579560724077342
aF0.6974761759871998
aF0.4215412301477609
aF0.1321415638705281
aF0.52046386256335
aF0.5411677882031203
aF0.8092991355107263
atp1977
a(g6
(S'\x00\t\x01\x00\x00\x00'
p1978
tp1979
Rp1980
g10
((lp1981
g12
ag13
a(lp1982
F0.5013008419269215
aF0.7199612702956434
aF0.6393906101527027
aF0.7329258541727465
aF0.4524890648032499
aF0.11615107338428643
aF0.5690542730693734
aF0.8311968266993414
aF0.3287494207706515
aF0.7562498949370107
aF0.9241373876851802
aF0.0469510335472334
aF0.8003603938350481
aF0.7384395970133613
aF0.7648752540686176
aF0.2044339247279291
aF0.8393814017445744
aF0.649817444095488
aF0.33136195197111473
aF0.35851105183637044
aF0.26055421105445276
aF0.10580508963061641
aF0.3141193187741531
atp1983
tp1984
a(g6
(S'\x00\t\x02\x00\x00\x00'
p1985
tp1986
Rp1987
g20
(lp1988
F0.770438420177614
aF0.024435742166133867
aF0.7665723207137869
aF0.17307961733431965
aF0.5445614720527633
aF0.9210837339743039
aF0.6791157079721634
aF0.2815712063253911
aF0.26891477933511554
aF0.2359954184086207
aF0.8207113846124209
aF0.7501985562534458
aF0.9599282439305636
aF0.39813063079450983
aF0.38320094814604366
aF0.29886729485947894
aF0.49103759505862254
aF0.7990211046392935
aF0.9259039264204261
aF0.5529732141897312
aF0.15356231565174694
aF0.28552984936561754
aF0.8868067656022138
atp1989
asg167
(dp1990
I1
(lp1991
(lp1992
S'34,133,207,143,218'
p1993
aS'80,133,209,135,205'
p1994
aS'129,211,190,211,190'
p1995
aS'123,165,182,165,182'
p1996
aS'115,158,176,158,176'
p1997
aS'128,176,192,176,192'
p1998
aS'122,218,215,218,215'
p1999
aS'112,227,180,227,180'
p2000
aS'127,233,222,233,222'
p2001
aS'72,155,191,155,191'
p2002
aS'120,132,210,132,210'
p2003
aa(lp2004
S'59,268,41,201,162'
p2005
aS'121,137,10,177,168'
p2006
aS'118,300,119,242,182'
p2007
aS'130,211,292,292,253'
p2008
aS'128,176,192,176,192'
p2009
aS'115,158,176,158,176'
p2010
aS'80,135,205,135,205'
p2011
aS'120,132,210,132,210'
p2012
aasI2
(lp2013
(lp2014
S'73,225,120,225,120'
p2015
aS'123,224,73,224,73'
p2016
aS'87,234,80,234,80'
p2017
aS'116,236,104,236,104'
p2018
aS'100,205,100,205,100'
p2019
aS'120,227,156,227,156'
p2020
aS'72,229,150,229,150'
p2021
aS'84,226,178,226,178'
p2022
aS'99,228,181,228,181'
p2023
aS'93,243,157,243,157'
p2024
aS'97,246,153,246,153'
p2025
aS'79,245,134,245,134'
p2026
aS'94,236,133,236,133'
p2027
aS'125,250,56,250,56'
p2028
aS'82,256,53,256,53'
p2029
aS'114,270,54,270,54'
p2030
aS'88,278,62,278,62'
p2031
aS'91,288,59,288,59'
p2032
aS'127,290,56,290,56'
p2033
aa(lp2034
S'73,123,206,225,120'
p2035
aS'98,229,92,229,92'
p2036
aS'66,161,153,220,94'
p2037
aS'110,203,207,217,137'
p2038
aS'69,189,317,201,127'
p2039
aS'71,197,312,200,82'
p2040
aS'59,302,372,209,155'
p2041
aS'62,221,221,217,182'
p2042
aS'109,225,294,227,192'
p2043
aS'64,304,182,245,174'
p2044
aS'124,215,227,190,109'
p2045
aS'63,205,246,263,176'
p2046
aS'126,283,271,253,184'
p2047
aS'123,224,73,224,73'
p2048
aasI3
(lp2049
(lp2050
S'40,151,295,151,295'
p2051
aS'20,138,301,138,301'
p2052
aS'1,134,313,134,313'
p2053
aS'23,157,318,157,318'
p2054
aS'55,143,278,143,278'
p2055
aS'50,136,281,136,281'
p2056
aS'46,118,272,118,272'
p2057
aS'12,114,187,114,187'
p2058
aS'30,119,183,119,183'
p2059
aS'47,126,207,126,207'
p2060
aS'33,122,213,122,213'
p2061
aS'9,122,222,122,222'
p2062
aS'39,145,197,145,197'
p2063
aS'45,140,194,140,194'
p2064
aS'11,134,187,134,187'
p2065
aS'31,82,199,82,199'
p2066
aS'49,106,209,106,209'
p2067
aS'0,89,226,89,226'
p2068
aS'2,127,254,127,254'
p2069
aa(lp2070
S'34,179,87,153,244'
p2071
aS'38,192,118,158,206'
p2072
aS'52,86,93,108,182'
p2073
aS'3,10,128,68,187'
p2074
aS'14,31,163,60,208'
p2075
aS'53,108,94,98,176'
p2076
aS'29,146,137,101,164'
p2077
aS'51,89,276,113,232'
p2078
aS'25,202,367,163,275'
p2079
aS'36,197,335,166,280'
p2080
aS'4,191,354,127,288'
p2081
aS'40,151,295,151,295'
p2082
aasI4
(lp2083
(lp2084
S'132,331,149,331,149'
p2085
aS'138,335,141,335,141'
p2086
aS'165,334,142,334,142'
p2087
aS'174,308,128,308,128'
p2088
aS'177,309,131,309,131'
p2089
aS'150,309,96,309,96'
p2090
aS'175,303,96,303,96'
p2091
aS'148,313,108,313,108'
p2092
aS'135,348,164,348,164'
p2093
aS'154,344,168,344,168'
p2094
aS'161,293,143,293,143'
p2095
aS'134,324,180,324,180'
p2096
aS'136,356,179,356,179'
p2097
aS'137,355,195,355,195'
p2098
aS'144,295,177,295,177'
p2099
aa(lp2100
S'158,243,10,334,118'
p2101
aS'139,305,260,319,144'
p2102
aS'133,320,250,324,157'
p2103
aS'143,305,251,329,161'
p2104
aS'130,308,234,326,176'
p2105
aS'145,308,244,303,147'
p2106
aS'171,362,57,328,98'
p2107
aS'162,323,248,323,248'
p2108
aasI5
(lp2109
(lp2110
S'95,191,253,266,313'
p2111
aS'61,339,228,316,300'
p2112
aS'106,279,357,279,357'
p2113
aS'114,283,352,283,352'
p2114
aS'117,281,353,281,353'
p2115
aS'82,274,357,274,357'
p2116
aS'116,270,352,270,352'
p2117
aS'111,297,350,297,350'
p2118
aS'108,287,330,287,330'
p2119
aS'101,286,317,286,317'
p2120
aS'122,289,314,289,314'
p2121
aS'80,266,330,266,330'
p2122
aS'99,253,331,253,331'
p2123
aS'84,260,337,260,337'
p2124
aS'87,259,335,259,335'
p2125
aS'94,266,334,266,334'
p2126
aS'85,248,343,248,343'
p2127
aS'67,248,362,248,362'
p2128
aS'96,305,313,305,313'
p2129
aS'105,309,311,309,311'
p2130
aS'68,272,295,272,295'
p2131
aS'115,268,293,268,293'
p2132
aS'72,264,293,264,293'
p2133
aS'123,257,295,257,295'
p2134
aS'65,253,304,253,304'
p2135
aS'100,234,314,234,314'
p2136
aS'124,232,303,232,303'
p2137
aS'121,286,334,286,334'
p2138
aa(lp2139
S'73,131,282,269,314'
p2140
aS'68,274,235,272,295'
p2141
aS'118,341,163,289,292'
p2142
aS'59,319,162,282,301'
p2143
aS'83,325,228,297,305'
p2144
aS'121,195,251,286,334'
p2145
aS'92,328,242,265,332'
p2146
aS'106,279,357,279,357'
p2147
aS'114,283,352,283,352'
p2148
aS'117,281,353,281,353'
p2149
aS'95,266,313,266,313'
p2150
aS'108,287,330,287,330'
p2151
aS'61,316,300,316,300'
p2152
aasI6
(lp2153
(lp2154
S'26,159,273,169,285'
p2155
aS'55,170,294,173,297'
p2156
aS'28,168,284,168,284'
p2157
aS'47,163,289,163,289'
p2158
aS'54,175,266,175,266'
p2159
aS'50,168,275,168,275'
p2160
aS'29,158,262,158,262'
p2161
aS'27,169,243,169,243'
p2162
aa(lp2163
S'18,10,29,141,261'
p2164
aS'3,14,74,121,240'
p2165
aS'10,54,126,136,238'
p2166
aS'14,25,81,127,234'
p2167
aS'6,99,170,122,213'
p2168
aS'53,105,153,114,179'
p2169
aS'31,81,133,140,230'
p2170
aS'5,74,127,136,211'
p2171
aS'28,168,284,168,284'
p2172
aasI7
(lp2173
(lp2174
S'71,212,296,269,339'
p2175
aS'73,275,353,265,354'
p2176
aS'118,347,196,331,314'
p2177
aS'95,277,350,277,350'
p2178
aS'102,276,371,276,371'
p2179
aS'80,283,358,283,358'
p2180
aS'82,285,361,285,361'
p2181
aS'94,286,357,286,357'
p2182
aS'99,269,354,269,354'
p2183
aS'120,254,355,254,355'
p2184
aS'101,295,330,295,330'
p2185
aS'88,301,349,301,349'
p2186
aS'111,308,353,308,353'
p2187
aS'114,293,366,293,366'
p2188
aS'117,297,361,297,361'
p2189
aS'119,296,364,296,364'
p2190
aS'97,286,368,286,368'
p2191
aS'116,284,369,284,369'
p2192
aS'83,285,321,285,321'
p2193
aS'65,270,314,270,314'
p2194
aS'68,275,299,275,299'
p2195
aS'72,273,299,273,299'
p2196
aS'123,270,304,270,304'
p2197
aS'78,275,290,275,290'
p2198
aS'76,299,311,299,311'
p2199
aS'128,306,317,306,317'
p2200
aS'86,316,305,316,305'
p2201
aS'96,319,308,319,308'
p2202
aS'113,323,309,323,309'
p2203
aS'129,310,303,310,303'
p2204
aa(lp2205
S'95,210,290,277,350'
p2206
aS'73,140,318,275,353'
p2207
aS'61,346,215,291,312'
p2208
aS'59,329,214,296,300'
p2209
aS'70,311,237,282,306'
p2210
aS'60,319,248,289,323'
p2211
aS'83,330,224,285,321'
p2212
aS'68,275,236,275,299'
p2213
aS'118,331,314,331,314'
p2214
aassg652
(lp2215
(g654
(g658
S'\xa0\x9d\xbb\x9a\xa1(\xc0\xbf'
p2216
tp2217
Rp2218
g654
(g658
S'I\xee\x1b\xc1\xa5\xe6\xb2\xbf'
p2219
tp2220
Rp2221
tp2222
a(g654
(g658
S'>\x00\xa8\xf5Dw\xa7?'
p2223
tp2224
Rp2225
g654
(g658
S'\x8d~Hc\xcf\x16\xbc\xbf'
p2226
tp2227
Rp2228
tp2229
a(g654
(g658
S'\x11\xde\x9e{~.\xa9\xbf'
p2230
tp2231
Rp2232
g654
(g658
S'\xa2+\x02\x1b\x83\xebf\xbf'
p2233
tp2234
Rp2235
tp2236
a(g654
(g658
S'\x12q*\xe7_\xde\xb7?'
p2237
tp2238
Rp2239
g654
(g658
S'5Q\xb3\x1f\x07>\xb1\xbf'
p2240
tp2241
Rp2242
tp2243
a(g654
(g658
S'\xaclV\xbbX\xae\xc1?'
p2244
tp2245
Rp2246
g654
(g658
S"K\x98\xb4q'\xb0\xa6\xbf"
p2247
tp2248
Rp2249
tp2250
a(g654
(g658
S'<J|\x97\xd5$\xc1?'
p2251
tp2252
Rp2253
g654
(g658
S',\xe4\xd4\xfd\x01\xc0\x95\xbf'
p2254
tp2255
Rp2256
tp2257
a(g654
(g658
S'rg\x84]Hb\xc5?'
p2258
tp2259
Rp2260
g654
(g658
S'\xfc\xde\x80\x82O\x83p\xbf'
p2261
tp2262
Rp2263
tp2264
a(g654
(g658
S'<J|\x97\xd5$\xc1?'
p2265
tp2266
Rp2267
g654
(g658
S',\xe4\xd4\xfd\x01\xc0\x95\xbf'
p2268
tp2269
Rp2270
tp2271
asg752
(lp2272
g654
(g658
S'\xe2\xe9\xd7\xfb\xb3C\xed?'
p2273
tp2274
Rp2275
ag654
(g658
S'b\x1a\xaa\x8a\xc9K\xed?'
p2276
tp2277
Rp2278
ag654
(g658
S'\x95M\xdd\xbd\xfc~\xed?'
p2279
tp2280
Rp2281
ag654
(g658
S'+\x89\xccES8\xee?'
p2282
tp2283
Rp2284
ag654
(g658
S'\x05\t\x00\x12\xee5\xee?'
p2285
tp2286
Rp2287
ag654
(g658
S'\x05\t\x00\x12\xee5\xee?'
p2288
tp2289
Rp2290
ag654
(g658
S'S\x03\xa5a\xe8\xda\xed?'
p2291
tp2292
Rp2293
ag654
(g658
S'-\x86\xd29k\x08\xee?'
p2294
tp2295
Rp2296
ag654
(g658
S'S\x03\xa5a\xe8\xda\xed?'
p2297
tp2298
Rp2299
asg796
(dp2300
g798
g799
sg800
g801
sg806
g807
sg808
(lp2301
(lp2302
asg811
g6
(S'\x00\x00\x00\x00\x00\x00'
p2303
tp2304
Rp2305
sg815
g816
ssg824
(lp2306
g826
a(lp2307
g865
ag839
ag866
ag833
ag861
aa(lp2308
g839
ag865
ag833
ag866
ag836
aa(lp2309
g839
ag833
ag865
ag836
ag832
aa(lp2310
g839
ag833
ag836
ag829
ag865
aa(lp2311
g839
ag833
ag836
ag832
ag829
aa(lp2312
g839
ag833
ag836
ag829
ag832
aa(lp2313
g839
ag833
ag836
ag832
ag829
aa(lp2314
g839
ag833
ag836
ag829
ag832
aasg847
(g654
(g658
S'AR\xccR"A\xb1\xbf'
p2315
tp2316
Rp2317
g654
(g658
S'\xda\xa4A\x8dK\xbc\xba\xbf'
p2318
tp2319
Rp2320
tp2321
sg855
g856
ssI6
(dp2322
g2
(lp2323
I0
aI0
aI1
aI0
aI0
aI0
aI0
aI0
aI0
asg4
(lp2324
(g6
(S'\x00\x08\x1a\x00\x00\x00'
p2325
tp2326
Rp2327
g10
((lp2328
g12
ag13
a(lp2329
F0.4198006185565817
aF0.0038801593185641137
aF0.2551480443532729
aF0.2876326794273517
aF0.13633385538275877
aF0.1512244982506047
aF0.7999175022879143
aF0.5727067879956579
aF0.9032888851671
aF0.4217052032684101
aF0.41140681842960625
aF0.3309350743512359
aF0.26029004038661097
aF0.39217253492586046
aF0.43810188023330654
aF0.19900126517669303
aF0.5310223415707639
aF0.12894129062767545
aF0.08694509926498784
aF0.3385746735222408
aF0.8751525483021593
aF0.6752363631287256
aF0.345187930738728
atp2330
tp2331
a(g6
(S'\x00\x08\x1b\x00\x00\x00'
p2332
tp2333
Rp2334
g20
(lp2335
F0.8168427505905571
aF0.35490967804750095
aF0.9551216028807262
aF0.3505068888877375
aF0.4568769963699094
aF0.4017192542422011
aF0.46525846435718343
aF0.8498266544862132
aF0.5461260001164543
aF0.16270414955750545
aF0.13182162424878785
aF0.08253706204918998
aF0.6570348278834719
aF0.6026978118599468
aF0.931341466189071
aF0.9742067434384466
aF0.5446351776814911
aF0.10965396847719477
aF0.654346694119665
aF0.7191738522583709
aF0.7695437421497957
aF0.47135771856847697
aF0.7965423523546129
atp2336
a(g6
(S'\x00\x08\x1f\x00\x00\x00'
p2337
tp2338
Rp2339
g10
((lp2340
g12
ag13
a(lp2341
F0.7022295164121126
aF0.5000404294562596
aF0.23393289533353734
aF0.44462936036870526
aF0.19237951749063298
aF0.45385455902271676
aF0.20223286163121978
aF0.21090944899903885
aF0.9510149147358794
aF0.9465713070028993
aF0.8605788933756666
aF0.04924290468548187
aF0.9349417130817033
aF0.4699658544018619
aF0.4525186211124359
aF0.7868406932841618
aF0.8347163462530832
aF0.7006316125326091
aF0.23215656645042348
aF0.3370425717482608
aF0.23667640711172733
aF0.5346377798472585
aF0.8581167139233313
atp2342
tp2343
a(g6
(S'\x00\x08 \x00\x00\x00'
p2344
tp2345
Rp2346
g20
(lp2347
F0.04391018842674688
aF0.1068957750968047
aF0.035013007510005356
aF0.041131186823246124
aF0.030910965372816013
aF0.9738426243693505
aF0.6251494105593154
aF0.1646449218452829
aF0.44924402854529333
aF0.6728417592723541
aF0.7608523368855893
aF0.12522110799934583
aF0.7075554729490231
aF0.9997884537500241
aF0.964744943068152
aF0.1384337005781493
aF0.569234332300898
aF0.851856254765146
aF0.6111296892088656
aF0.4996624579053376
aF0.3230299109696205
aF0.2509199233903533
aF0.15927432360691518
atp2348
a(g6
(S'\x00\x08$\x00\x00\x00'
p2349
tp2350
Rp2351
g10
((lp2352
g12
ag13
a(lp2353
F0.49595110032612955
aF0.8178964472556444
aF0.5812033052592627
aF0.23799198124242094
aF0.6201494449742847
aF0.920726972091724
aF0.3171989643828783
aF0.746448431797317
aF0.7132834375859162
aF0.5412463685499516
aF0.496798592792572
aF0.5805389313773314
aF0.596039155732773
aF0.7031715804540647
aF0.07049271432620552
aF0.9691423214654308
aF0.0057981430589856275
aF0.8723109741896397
aF0.6920369025561762
aF0.34816461330576787
aF0.21106119143390167
aF0.6195855628857674
aF0.3449967265001823
atp2354
tp2355
a(g6
(S'\x00\x08%\x00\x00\x00'
p2356
tp2357
Rp2358
g20
(lp2359
F0.9090468901260691
aF0.4251503539216521
aF0.02289587619849265
aF0.12464264316494145
aF0.5672382363286051
aF0.23312791165388191
aF0.6744668699089774
aF0.31951352884275164
aF0.6817251460299375
aF0.1726946380280866
aF0.7912282059898922
aF0.6571690821601661
aF0.8458722085367694
aF0.7870263478573707
aF0.09836348235486636
aF0.9594044714332672
aF0.1046579632446647
aF0.2360491493712601
aF0.4549273161591567
aF0.062255025888579785
aF0.38937327287489265
aF0.3669384874108711
aF0.8622912774821313
atp2360
a(g6
(S'\x00\x08)\x00\x00\x00'
p2361
tp2362
Rp2363
g10
((lp2364
g12
ag13
a(lp2365
F0.943742192325676
aF0.7723803466208732
aF0.2273585748133614
aF0.018400606444926915
aF0.6329690931953393
aF0.47581449154917876
aF0.1701361065766045
aF0.6946038887840839
aF0.30639193606822557
aF0.581205786743638
aF0.7002759679235364
aF0.8928735798273641
aF0.3940078002851145
aF0.14682394976994273
aF0.18056005551369902
aF0.31245339625423574
aF0.5620554136244915
aF0.8994246301159913
aF0.7100244663567161
aF0.26032941167217694
aF0.016863100645688633
aF0.4521766006214406
aF0.3367128649881179
atp2366
tp2367
a(g6
(S'\x00\x08*\x00\x00\x00'
p2368
tp2369
Rp2370
g20
(lp2371
F0.780266151829635
aF0.11900794979209683
aF0.714159593317553
aF0.7935224907473027
aF0.22698301362231543
aF0.7379432648591743
aF0.47272358125731306
aF0.7564047697214031
aF0.03345133040438686
aF0.8416661618680132
aF0.6308665975154779
aF0.39915913515126944
aF0.28579222078364064
aF0.26248689292804617
aF0.40839391025675675
aF0.7419861544334662
aF0.9781099343960405
aF0.2142779929343822
aF0.9330316085453871
aF0.802449660020161
aF0.9731186698709391
aF0.4505523573487723
aF0.483149786767783
atp2372
a(g6
(S'\x00\x08.\x00\x00\x00'
p2373
tp2374
Rp2375
g10
((lp2376
g12
ag13
a(lp2377
F0.6151850774672738
aF0.8756460933943991
aF0.76141349893288
aF0.1383333862823769
aF0.3792988337585732
aF0.5454481072578572
aF0.5974778126566717
aF0.31457353458669746
aF0.5713405174980977
aF0.381860661989478
aF0.40412328991089896
aF0.46478034204163976
aF0.7342857335444359
aF0.43170022207967484
aF0.998310435870062
aF0.050301358802214535
aF0.9531094627720411
aF0.783847582644391
aF0.5114297284954806
aF0.22822724772309
aF0.18502348399175594
aF0.7106885675493588
aF0.4394698661312433
atp2378
tp2379
a(g6
(S'\x00\x08/\x00\x00\x00'
p2380
tp2381
Rp2382
g20
(lp2383
F0.38808585401940165
aF0.15163289752239373
aF0.4465279165657614
aF0.7824258425055538
aF0.30779520519748815
aF0.13041374543054907
aF0.21389986370013636
aF0.5046760238898218
aF0.4425464446624281
aF0.5109747629012931
aF0.8903454012263387
aF0.04011699638266675
aF0.32317743824380896
aF0.2057208793581058
aF0.8391543197832906
aF0.6514984548207421
aF0.024875088714548466
aF0.6644450035187666
aF0.3531194813644577
aF0.6834721051435869
aF0.970726625248773
aF0.4105470398040363
aF0.16770613973641513
atp2384
a(g6
(S'\x00\x083\x00\x00\x00'
p2385
tp2386
Rp2387
g10
((lp2388
g12
ag13
a(lp2389
F0.1959935028331261
aF0.72770883815223
aF0.6256580719743549
aF0.8961225254967952
aF0.538542575149405
aF0.48358254308599546
aF0.7246627975759401
aF0.576805172894243
aF0.42247646361831637
aF0.7053613951274033
aF0.4200975932179022
aF0.6413074617284745
aF0.5284959308720093
aF0.36918909729561766
aF0.7557395919301133
aF0.8860171487308066
aF0.3583477026976505
aF0.216968655544436
aF0.5890183018508772
aF0.7466249836452037
aF0.7454293546075128
aF0.9016569987093478
aF0.03529739448374791
atp2390
tp2391
a(g6
(S'\x00\x084\x00\x00\x00'
p2392
tp2393
Rp2394
g20
(lp2395
F0.6072628708072808
aF0.5146317335181954
aF0.8534898070659286
aF0.9657051357547486
aF0.06085547267123448
aF0.6566574196093395
aF0.1595889718946264
aF0.49625065860930573
aF0.9333046926467636
aF0.8836671085834629
aF0.008624273464976184
aF0.09634698097743899
aF0.19618498595663114
aF0.26722018647741286
aF0.7006712205870356
aF0.08102897602805315
aF0.08603543069368735
aF0.4511998728732104
aF0.4048491801506746
aF0.40483766995193615
aF0.902640621512405
aF0.3349564675510125
aF0.2750459170344053
atp2396
a(g6
(S'\x00\x088\x00\x00\x00'
p2397
tp2398
Rp2399
g10
((lp2400
g12
ag13
a(lp2401
F0.4454492695519524
aF0.9750834763369949
aF0.5410219192220932
aF0.5816664774928753
aF0.27010655736582656
aF0.47711549823144084
aF0.4905426859401142
aF0.7106953762827877
aF0.04215562936544215
aF0.37459240364757607
aF0.9278154079249358
aF0.28402015651393353
aF0.35810308212995823
aF0.14512786355991458
aF0.5670300142290872
aF0.4914493732490496
aF0.8835067074796608
aF0.43306198029734544
aF0.07714204678896053
aF0.9001818183038517
aF0.6402637056972823
aF0.06447242353553428
aF0.09611681270336747
atp2402
tp2403
a(g6
(S'\x00\x089\x00\x00\x00'
p2404
tp2405
Rp2406
g20
(lp2407
F0.8584878369379444
aF0.9848478516095467
aF0.4533170967066503
aF0.7582796753690926
aF0.22876680999536447
aF0.45242286318812064
aF0.5416050453576966
aF0.6704733361833481
aF0.0975601083065889
aF0.16340627459908508
aF0.6737855813175606
aF0.22979288496464945
aF0.42845468070690873
aF0.27258737564760893
aF0.01813052947366811
aF0.4077660727378145
aF0.6231702073189537
aF0.3931232737438427
aF0.334325863774958
aF0.13423080972204382
aF0.37983291009064857
aF0.47796753927110003
aF0.19636328865412767
atp2408
a(g6
(S'\x00\t\x01\x00\x00\x00'
p2409
tp2410
Rp2411
g10
((lp2412
g12
ag13
a(lp2413
F0.9668417699371654
aF0.4626885619264386
aF0.9205562190934041
aF0.2667982549087211
aF0.8672130951776431
aF0.23329985139684595
aF0.18821778460448413
aF0.7912340223954647
aF0.29348026098298785
aF0.5325606891182932
aF0.24995897943315737
aF0.24036670254137638
aF0.6005881450848073
aF0.6533750758071057
aF0.07367199078934239
aF0.6662510005860698
aF0.050792944293686415
aF0.6901040675027255
aF0.8105845102456951
aF0.1839865463260436
aF0.36724344397540054
aF0.9763307810495733
aF0.30565330050229944
atp2414
tp2415
a(g6
(S'\x00\t\x02\x00\x00\x00'
p2416
tp2417
Rp2418
g20
(lp2419
F0.2566192929977451
aF0.08662806029347436
aF0.4527373998568962
aF0.1443980195669874
aF0.5838655860603662
aF0.2527702747724567
aF0.05706642368121995
aF0.9257700365499261
aF0.1039173685607605
aF0.8294559595697066
aF0.8772700933060487
aF0.6936737733413492
aF0.3466890041555568
aF0.15679449965851244
aF0.21081061962701675
aF0.34856040873738714
aF0.8272595439074971
aF0.8093277468515953
aF0.6897874275250755
aF0.34459000836727505
aF0.07186312317880394
aF0.16888594953895397
aF0.056474065829465014
atp2420
a(g6
(S'\x00\t\x06\x00\x00\x00'
p2421
tp2422
Rp2423
g10
((lp2424
g12
ag13
a(lp2425
F0.24432681492894937
aF0.9130169706134104
aF0.8241516107575462
aF0.7764985368524912
aF0.8872746099579271
aF0.09387091359938626
aF0.8587932789008472
aF0.15669582041443786
aF0.9877728697866681
aF0.850167104758354
aF0.7634349756275208
aF0.6294760178759516
aF0.052800039341998395
aF0.9104568762684145
aF0.054172126522369135
aF0.4609146480292803
aF0.890326196022106
aF0.6717434598196727
aF0.4516230884346327
aF0.16060455081406633
aF0.0813208905516174
aF0.720740243106053
aF0.18591091608749366
atp2426
tp2427
a(g6
(S'\x00\t\x07\x00\x00\x00'
p2428
tp2429
Rp2430
g20
(lp2431
F0.3330171824095718
aF0.9308144356555857
aF0.9138167206144111
aF0.6636990385694153
aF0.02652530869662928
aF0.5652967610011671
aF0.46545021280893206
aF0.9738560975143019
aF0.6269038722435697
aF0.859535667294936
aF0.13853010085601802
aF0.2570486775212625
aF0.43479308941364603
aF0.2738775471239826
aF0.733566076643943
aF0.5828244716385268
aF0.16676497959873182
aF0.16837613911676597
aF0.3396288133952158
aF0.6077171991976625
aF0.9325850904338356
aF0.05609563422755104
aF0.12158867303036802
atp2432
asg167
(dp2433
I1
(lp2434
(lp2435
S'121,182,150,182,150'
p2436
aS'118,209,169,209,169'
p2437
aS'59,268,41,197,206'
p2438
aS'95,120,87,173,201'
p2439
aS'66,73,129,165,215'
p2440
aS'73,76,133,174,253'
p2441
aS'69,126,120,155,215'
p2442
aS'129,211,190,211,190'
p2443
aS'128,176,192,176,192'
p2444
aa(lp2445
S'128,176,192,176,192'
p2446
aS'129,211,190,211,190'
p2447
aS'106,165,310,165,310'
p2448
aS'111,170,309,170,309'
p2449
aS'103,167,317,167,317'
p2450
aS'114,177,299,177,299'
p2451
aS'96,168,297,168,297'
p2452
aS'82,158,300,158,300'
p2453
aS'76,155,300,155,300'
p2454
aS'89,158,289,158,289'
p2455
aasI2
(lp2456
(lp2457
S'121,108,57,151,227'
p2458
aS'59,250,137,178,229'
p2459
aS'118,294,165,178,244'
p2460
aS'83,262,243,191,249'
p2461
aS'92,241,261,198,257'
p2462
aS'90,239,278,191,272'
p2463
aS'50,64,179,115,184'
p2464
aS'73,89,190,89,190'
p2465
aS'124,101,175,110,194'
p2466
aS'71,91,181,132,214'
p2467
aS'98,85,187,117,211'
p2468
aS'66,65,182,125,207'
p2469
aa(lp2470
S'101,165,256,165,256'
p2471
aS'126,160,260,160,260'
p2472
aS'108,148,264,148,264'
p2473
aS'62,141,257,141,257'
p2474
aS'87,136,264,136,264'
p2475
aS'89,139,302,139,302'
p2476
aS'76,148,305,148,305'
p2477
aS'116,132,308,132,308'
p2478
aS'78,134,292,134,292'
p2479
aS'117,122,292,122,292'
p2480
aS'125,118,288,118,288'
p2481
aS'104,114,287,114,287'
p2482
aasI3
(lp2483
(lp2484
S'121,108,57,173,280'
p2485
aS'59,250,137,165,281'
p2486
aS'83,262,243,163,284'
p2487
aS'118,294,165,178,288'
p2488
aS'92,241,261,172,292'
p2489
aS'112,221,218,167,287'
p2490
aS'90,239,278,171,287'
p2491
aS'60,223,254,176,302'
p2492
aS'66,65,182,155,225'
p2493
aS'73,49,195,147,239'
p2494
aS'63,59,250,153,253'
p2495
aS'74,57,226,156,242'
p2496
aS'124,101,175,162,229'
p2497
aS'71,91,181,149,237'
p2498
aS'98,85,187,153,246'
p2499
aS'123,154,201,154,257'
p2500
aS'100,140,204,153,246'
p2501
aS'115,145,190,150,242'
p2502
aS'110,126,193,165,265'
p2503
aS'69,122,197,180,267'
p2504
aS'95,113,202,161,251'
p2505
aS'129,201,222,158,253'
p2506
aS'122,207,234,157,256'
p2507
aa(lp2508
S'76,148,305,145,304'
p2509
aS'78,131,294,131,294'
p2510
aS'114,160,312,160,312'
p2511
aS'89,139,302,139,302'
p2512
aS'116,132,308,132,308'
p2513
aS'102,128,310,128,310'
p2514
aS'82,139,319,139,319'
p2515
aS'117,122,292,122,292'
p2516
aS'125,118,288,118,288'
p2517
aS'104,114,287,114,287'
p2518
aasI4
(lp2519
(lp2520
S'121,185,118,185,118'
p2521
aS'73,47,158,149,84'
p2522
aS'118,293,172,159,94'
p2523
aS'59,256,185,156,88'
p2524
aS'83,269,125,160,85'
p2525
aS'71,93,172,163,90'
p2526
aS'98,87,153,163,88'
p2527
aS'23,74,144,68,143'
p2528
aS'66,75,148,166,76'
p2529
aS'124,110,137,159,84'
p2530
aS'95,115,132,157,82'
p2531
aS'74,71,116,146,80'
p2532
aS'63,144,85,144,85'
p2533
aS'115,162,129,160,89'
p2534
aS'123,154,122,165,88'
p2535
aS'69,133,134,154,80'
p2536
aS'110,136,135,153,71'
p2537
aS'112,228,117,158,83'
p2538
aS'60,242,109,159,77'
p2539
aS'61,261,86,166,76'
p2540
aS'92,257,96,162,75'
p2541
aS'4,102,93,84,109'
p2542
aS'109,101,96,169,64'
p2543
aS'25,102,81,164,48'
p2544
aS'100,142,118,174,53'
p2545
aS'122,205,100,173,70'
p2546
aS'68,211,109,149,57'
p2547
aS'129,209,105,167,73'
p2548
aS'81,103,83,103,83'
p2549
aa(lp2550
S'102,145,48,145,48'
p2551
aS'117,149,51,149,51'
p2552
aS'125,139,59,139,59'
p2553
aS'116,156,41,156,41'
p2554
aS'82,160,30,160,30'
p2555
aS'106,171,31,171,31'
p2556
aS'111,172,47,172,47'
p2557
aS'114,172,44,172,44'
p2558
aS'67,135,46,135,46'
p2559
aS'79,127,40,127,40'
p2560
aS'97,125,34,125,34'
p2561
aasI5
(lp2562
(lp2563
S'43,143,92,139,155'
p2564
aS'25,120,64,77,186'
p2565
aS'4,123,77,84,185'
p2566
aS'32,112,79,89,184'
p2567
aS'3,10,345,78,193'
p2568
aS'18,27,338,79,188'
p2569
aS'14,18,317,84,187'
p2570
aS'10,48,272,80,192'
p2571
aS'5,61,264,81,186'
p2572
aS'52,36,254,88,187'
p2573
aS'49,70,248,83,192'
p2574
aS'21,132,101,79,189'
p2575
aS'36,120,88,81,188'
p2576
aS'44,92,74,83,199'
p2577
aS'41,115,102,77,185'
p2578
aS'34,124,131,81,191'
p2579
aS'38,115,108,84,188'
p2580
aS'27,112,111,83,188'
p2581
aS'24,83,89,86,190'
p2582
aS'35,77,96,80,197'
p2583
aS'23,92,113,88,191'
p2584
aS'37,121,73,121,73'
p2585
aa(lp2586
S'57,88,190,89,189'
p2587
aS'39,96,194,88,186'
p2588
aS'50,83,175,83,175'
p2589
aS'45,99,191,85,192'
p2590
aS'12,63,183,71,182'
p2591
aS'53,84,213,79,200'
p2592
aS'11,94,205,81,198'
p2593
aS'33,100,198,86,195'
p2594
aS'15,84,182,78,191'
p2595
aS'16,77,182,78,188'
p2596
aS'30,64,181,80,195'
p2597
aasI6
(lp2598
(lp2599
S'34,99,118,56,183'
p2600
aS'27,97,111,67,200'
p2601
aS'41,97,102,56,189'
p2602
aS'38,97,94,69,170'
p2603
aS'21,103,89,69,178'
p2604
aS'32,90,89,64,175'
p2605
aS'36,101,87,56,201'
p2606
aS'35,56,105,65,180'
p2607
aS'24,58,95,58,163'
p2608
aS'23,71,98,60,173'
p2609
aS'44,67,87,61,183'
p2610
aS'4,104,77,51,197'
p2611
aS'37,105,79,50,197'
p2612
aS'25,99,70,55,186'
p2613
aS'43,123,86,47,196'
p2614
aS'3,10,342,57,189'
p2615
aS'18,27,344,59,194'
p2616
aS'14,16,318,60,182'
p2617
aS'5,48,258,56,180'
p2618
aS'49,58,250,62,161'
p2619
aS'10,28,258,55,178'
p2620
aS'52,24,252,63,180'
p2621
aS'1,60,122,59,171'
p2622
aS'22,29,135,56,181'
p2623
aS'19,62,135,62,188'
p2624
aS'26,65,137,58,202'
p2625
aS'40,62,143,61,199'
p2626
aS'28,52,143,66,201'
p2627
aS'55,60,141,61,193'
p2628
aS'29,65,150,58,176'
p2629
aS'54,72,147,60,169'
p2630
aS'48,77,158,51,192'
p2631
aS'17,76,170,63,180'
p2632
aS'20,35,151,63,177'
p2633
aS'47,39,169,65,182'
p2634
aS'0,21,189,60,191'
p2635
aS'42,19,206,55,179'
p2636
aS'31,54,226,60,185'
p2637
aS'13,48,236,62,189'
p2638
aS'58,40,227,54,186'
p2639
aa(lp2640
S'39,65,182,59,181'
p2641
aS'30,52,181,56,188'
p2642
aS'6,58,209,62,214'
p2643
aS'53,70,203,66,204'
p2644
aS'16,68,195,66,194'
p2645
aS'15,67,186,63,184'
p2646
aS'46,35,191,31,189'
p2647
aS'50,63,170,66,172'
p2648
aS'8,64,218,64,218'
p2649
aS'12,65,175,65,175'
p2650
aS'7,54,169,54,169'
p2651
aS'9,36,181,36,181'
p2652
aS'51,38,187,38,187'
p2653
aS'56,49,197,49,197'
p2654
aS'57,69,175,69,175'
p2655
aS'33,81,180,81,180'
p2656
aS'2,64,158,64,158'
p2657
aS'11,84,185,84,185'
p2658
aS'45,82,185,82,185'
p2659
aasI7
(lp2660
(lp2661
S'121,81,194,127,41'
p2662
aS'71,66,123,125,41'
p2663
aS'73,22,124,124,44'
p2664
aS'98,62,107,144,28'
p2665
aS'66,65,102,128,31'
p2666
aS'63,71,83,161,20'
p2667
aS'74,71,83,166,8'
p2668
aS'124,99,82,156,10'
p2669
aS'95,103,70,171,7'
p2670
aS'68,200,84,157,34'
p2671
aS'118,269,82,136,0'
p2672
aS'61,262,78,178,15'
p2673
aS'83,259,89,162,11'
p2674
aS'59,248,87,168,13'
p2675
aS'60,248,77,178,35'
p2676
aS'70,246,60,151,12'
p2677
aS'92,250,56,161,17'
p2678
aS'109,90,55,173,24'
p2679
aS'81,92,51,158,9'
p2680
aS'123,136,79,167,30'
p2681
aS'110,130,76,147,26'
p2682
aS'69,131,70,166,7'
p2683
aS'62,145,75,165,19'
p2684
aa(lp2685
S'82,157,16,160,9'
p2686
aS'93,113,27,113,27'
p2687
aS'97,116,23,116,23'
p2688
aS'125,126,29,126,29'
p2689
aS'102,131,30,131,30'
p2690
aS'67,120,38,120,38'
p2691
aS'79,108,36,108,36'
p2692
aS'104,108,39,108,39'
p2693
aS'85,120,36,120,36'
p2694
aS'87,153,29,153,29'
p2695
aS'111,147,24,147,24'
p2696
aS'89,145,21,145,21'
p2697
aS'114,144,20,144,20'
p2698
aS'117,148,16,148,16'
p2699
aS'116,152,17,152,17'
p2700
aS'106,156,18,156,18'
p2701
aS'119,164,11,164,11'
p2702
aS'108,159,30,159,30'
p2703
aS'128,161,32,161,32'
p2704
aasI8
(lp2705
(lp2706
S'121,98,145,143,35'
p2707
aS'71,68,108,136,21'
p2708
aS'73,17,107,171,0'
p2709
aS'98,69,88,150,17'
p2710
aS'66,71,90,156,12'
p2711
aS'74,72,71,148,11'
p2712
aS'62,137,76,157,14'
p2713
aS'123,142,68,145,10'
p2714
aS'25,80,68,140,8'
p2715
aS'63,81,69,153,8'
p2716
aS'95,97,64,141,16'
p2717
aS'124,113,61,154,8'
p2718
aS'118,267,73,182,9'
p2719
aS'61,259,78,137,1'
p2720
aS'83,253,85,144,-3'
p2721
aS'60,238,67,163,9'
p2722
aS'59,240,64,119,-4'
p2723
aS'70,233,59,180,22'
p2724
aS'92,244,51,170,8'
p2725
aS'68,189,81,154,14'
p2726
aa(lp2727
S'87,149,21,149,21'
p2728
aS'89,143,18,147,12'
p2729
aS'125,134,23,140,20'
p2730
aS'108,165,25,162,17'
p2731
aS'85,120,31,124,28'
p2732
aS'111,152,22,152,22'
p2733
aS'117,151,14,151,14'
p2734
aS'82,153,15,153,15'
p2735
aS'116,154,12,154,12'
p2736
aS'106,156,19,156,19'
p2737
aS'114,150,17,150,17'
p2738
aS'102,136,26,136,26'
p2739
aS'93,121,20,121,20'
p2740
aS'119,165,10,165,10'
p2741
aS'67,122,38,122,38'
p2742
aS'94,129,37,129,37'
p2743
aassg652
(lp2744
(g654
(g658
S'8\x8d\xe8~\x00\xbc\xae\xbf'
p2745
tp2746
Rp2747
g654
(g658
S'f\x15\xed,<i\xb1\xbf'
p2748
tp2749
Rp2750
tp2751
a(g654
(g658
S'\xb2\x07\x1fV\xa6x\x9a\xbf'
p2752
tp2753
Rp2754
g654
(g658
S'n\x84\x8b]\x9d\n\xa6\xbf'
p2755
tp2756
Rp2757
tp2758
a(g654
(g658
S'8\x8d\xe8~\x00\xbc\xae\xbf'
p2759
tp2760
Rp2761
g654
(g658
S'f\x15\xed,<i\xb1\xbf'
p2762
tp2763
Rp2764
tp2765
a(g654
(g658
S'\x1f\xe6\x95\x1c\xccx\x82\xbf'
p2766
tp2767
Rp2768
g654
(g658
S'd\xc6\xcb\xcc\xcc\xe1\xa8\xbf'
p2769
tp2770
Rp2771
tp2772
a(g654
(g658
S'w\xa9\xfa\xe3~!\x95?'
p2773
tp2774
Rp2775
g654
(g658
S'<\xc1\x92\xf4\xbe\x0f\xa0\xbf'
p2776
tp2777
Rp2778
tp2779
a(g654
(g658
S'\xcf\rO\xdd\xc8m\xad?'
p2780
tp2781
Rp2782
g654
(g658
S"\xe3\xdd\x9e\xe5\xe4\x81'?"
p2783
tp2784
Rp2785
tp2786
a(g654
(g658
S'\x99)\x96@\x8d\xf1\xb7?'
p2787
tp2788
Rp2789
g654
(g658
S'\xa2\xd5\xe1\xf6^\xb2\x8e?'
p2790
tp2791
Rp2792
tp2793
a(g654
(g658
S'\x05T{\xe2m\xe9\xba?'
p2794
tp2795
Rp2796
g654
(g658
S'X\x93EL\x02\x06\xaa?'
p2797
tp2798
Rp2799
tp2800
a(g654
(g658
S'\x98\xd0rPZ\x1f\xc1?'
p2801
tp2802
Rp2803
g654
(g658
S'\xdb\x87\x92\x99\x89\x8c\xb6?'
p2804
tp2805
Rp2806
tp2807
asg752
(lp2808
g654
(g658
S'\xe2\xe9\xd7\xfb\xb3C\xed?'
p2809
tp2810
Rp2811
ag654
(g658
S'FS8n\x02\xda\xed?'
p2812
tp2813
Rp2814
ag654
(g658
S'[\xb6\x02j\x9b8\xee?'
p2815
tp2816
Rp2817
ag654
(g658
S'FS8n\x02\xda\xed?'
p2818
tp2819
Rp2820
ag654
(g658
S'\xbd\xc1\xb8\xca\xa6\xee\xee?'
p2821
tp2822
Rp2823
ag654
(g658
S'e\x14\xb6r\xf9\xeb\xee?'
p2824
tp2825
Rp2826
ag654
(g658
S'c\x0e\xb9c\x0e\xb9\xee?'
p2827
tp2828
Rp2829
ag654
(g658
S'3<*N\x06\x96\xee?'
p2830
tp2831
Rp2832
ag654
(g658
S'\xf0\xee\xee\xee\xee\xee\xee?'
p2833
tp2834
Rp2835
ag654
(g658
S'\xed\xf1\xe8\xfa\xd6\x1e\xef?'
p2836
tp2837
Rp2838
asg796
(dp2839
g798
g799
sg800
g801
sg806
g807
sg808
(lp2840
(lp2841
asg811
g6
(S'\x00\x00\x00\x00\x00\x00'
p2842
tp2843
Rp2844
sg815
g816
ssg824
(lp2845
g826
a(lp2846
g832
ag833
ag829
ag830
ag836
aa(lp2847
g832
ag833
ag829
ag839
ag836
aa(lp2848
g832
ag833
ag829
ag830
ag836
aa(lp2849
g832
ag833
ag839
ag829
ag836
aa(lp2850
g832
ag833
ag839
ag830
ag829
aa(lp2851
g832
ag833
ag830
ag839
ag836
aa(lp2852
g832
ag833
ag830
ag839
ag836
aa(lp2853
g832
ag833
ag839
ag830
ag829
aa(lp2854
g832
ag833
ag839
ag829
ag830
aasg847
(g654
(g658
S'AR\xccR"A\xb1\xbf'
p2855
tp2856
Rp2857
g654
(g658
S'\xda\xa4A\x8dK\xbc\xba\xbf'
p2858
tp2859
Rp2860
tp2861
sg855
g856
ssI7
(dp2862
g2
(lp2863
I0
aI0
aI0
aI0
asg4
(lp2864
(g6
(S'\x00\x08\x1a\x00\x00\x00'
p2865
tp2866
Rp2867
g10
((lp2868
g12
ag13
a(lp2869
F0.8074775263824187
aF0.39567413220641956
aF0.6052713354288884
aF0.7418516759520255
aF0.19652726887571914
aF0.2637224264985102
aF0.2374746777880995
aF0.751396031705241
aF0.4382471514253722
aF0.45344987011271876
aF0.0748146750781905
aF0.370787521825344
aF0.7873245939391771
aF0.42396295256219874
aF0.9437115718914272
aF0.2438663259998064
aF0.17907202181327175
aF0.028394088224698022
aF0.5558714466963992
aF0.3118648320353212
aF0.8574318111368995
aF0.23308333904065015
aF0.4770997647027866
atp2870
tp2871
a(g6
(S'\x00\x08\x1b\x00\x00\x00'
p2872
tp2873
Rp2874
g20
(lp2875
F0.7750911543571043
aF0.1049829943775088
aF0.798155483860835
aF0.09738200267435082
aF0.3955134119156565
aF0.6377845869144968
aF0.14346698955193848
aF0.6314626312720579
aF0.8437484745773057
aF0.03960835472224067
aF0.4476943703347339
aF0.12923951857121674
aF0.3246706784712965
aF0.4006749036072105
aF0.716356995773082
aF0.027916763930945887
aF0.0681987390084865
aF0.6504285726514994
aF0.41929193821991084
aF0.2657904212398684
aF0.46782993017980745
aF0.20040547434343692
aF0.2899622547454038
atp2876
a(g6
(S'\x00\x08\x1f\x00\x00\x00'
p2877
tp2878
Rp2879
g10
((lp2880
g12
ag13
a(lp2881
F0.8712849623828833
aF0.8969722489305139
aF0.3563429021329114
aF0.8845340881590957
aF0.47252346862343464
aF0.724226033686453
aF0.9178133400186702
aF0.18681089482318025
aF0.12230442180992163
aF0.5128617620988933
aF0.9387745636748714
aF0.31478007920372064
aF0.4493457078101495
aF0.21824287169496026
aF0.18086104187137808
aF0.26485724261677923
aF0.5742880791282695
aF0.9194406080536021
aF0.8455541120859372
aF0.5753777108179197
aF0.15814101107282286
aF0.9995816059363614
aF0.7037195827734254
atp2882
tp2883
a(g6
(S'\x00\x08 \x00\x00\x00'
p2884
tp2885
Rp2886
g20
(lp2887
F0.1440212125142435
aF0.846371012859384
aF0.09616705642662149
aF0.9957292587871943
aF0.0872602644564151
aF0.6426031205401871
aF0.2579657624672912
aF0.8616518820463608
aF0.33221804269049826
aF0.31782816200210207
aF0.5289277324730152
aF0.28685248303288635
aF0.17532516947348742
aF0.5601063602190095
aF0.9825096832647193
aF0.08496002105958123
aF0.42145913214346653
aF0.15680203663362868
aF0.050484286320371385
aF0.7059894356364026
aF0.018107333026352368
aF0.10953441107756512
aF0.19516074808355854
atp2888
a(g6
(S'\x00\x08$\x00\x00\x00'
p2889
tp2890
Rp2891
g10
((lp2892
g12
ag13
a(lp2893
F0.8481591181775596
aF0.37115225780531047
aF0.1504042033865306
aF0.49892310146846774
aF0.1457434549777087
aF0.7534207860244017
aF0.9153941574754569
aF0.17215891655436144
aF0.8968098326459704
aF0.12999626740666603
aF0.02318269411469187
aF0.3898818130134686
aF0.47625556941522695
aF0.5659523643352216
aF0.8606390063772604
aF0.8464814207792676
aF0.6489375570647372
aF0.4369771871510796
aF0.23433840037720455
aF0.7874360398026253
aF0.0020994405060852372
aF0.5972407006696706
aF0.7024257099764522
atp2894
tp2895
a(g6
(S'\x00\x08%\x00\x00\x00'
p2896
tp2897
Rp2898
g20
(lp2899
F0.6082970561949175
aF0.9830697634320438
aF0.05798586184422927
aF0.5229327176759865
aF0.5374134725615465
aF0.12674252287997811
aF0.46244979540245335
aF0.550958317793781
aF0.5360131656874195
aF0.6502304495248583
aF0.5713065191369617
aF0.00935577908783014
aF0.31762260587265856
aF0.8141652039674447
aF0.4521717337672744
aF0.2635956937201962
aF0.916518623803437
aF0.742865431442482
aF0.9656734592170034
aF0.9221477041978281
aF0.7605045553939617
aF0.19494952822914646
aF0.2859645720508067
atp2900
a(g6
(S'\x00\x08)\x00\x00\x00'
p2901
tp2902
Rp2903
g10
((lp2904
g12
ag13
a(lp2905
F0.6063139462265226
aF0.06291252693520888
aF0.5255486279541783
aF0.18515170440350115
aF0.5439914370619383
aF0.4154155373795848
aF0.9768547946156075
aF0.9820090663817391
aF0.005289639408187274
aF0.9699221959800463
aF0.8495909886132346
aF0.9965797575409192
aF0.1784151708813454
aF0.7635881897371409
aF0.3167107380238584
aF0.018271234120677438
aF0.05934662086465847
aF0.32308698995391616
aF0.9646969664596252
aF0.4642728910012862
aF0.6324025126870914
aF0.8186376354003483
aF0.4901082913904997
atp2906
tp2907
a(g6
(S'\x00\x08*\x00\x00\x00'
p2908
tp2909
Rp2910
g20
(lp2911
F0.9535589578456656
aF0.10531652413839021
aF0.4589729227639858
aF0.8785460711021049
aF0.18607750586322047
aF0.5775369979680945
aF0.8189087268297938
aF0.8667159937765354
aF0.6439582403390439
aF0.9783634184577662
aF0.1374867482644312
aF0.6871216573694512
aF0.4364878057151218
aF0.42117589830755575
aF0.1746807631028715
aF0.3584977946992355
aF0.9437628681874121
aF0.09689601281036975
aF0.4634122047694721
aF0.5917623221800459
aF0.9858648417179717
aF0.07965894982251676
aF0.13191122067165406
atp2912
asg167
(dp2913
I1
(lp2914
(lp2915
S'8,57,135,57,135'
p2916
aS'28,64,135,64,135'
p2917
aS'50,61,160,61,160'
p2918
aS'19,53,186,53,186'
p2919
aS'24,73,214,73,214'
p2920
aS'26,75,224,75,224'
p2921
aS'54,70,223,70,223'
p2922
aS'30,50,214,50,214'
p2923
aS'29,81,181,81,181'
p2924
aa(lp2925
S'14,19,51,68,184'
p2926
aS'3,17,18,71,197'
p2927
aS'18,32,122,66,195'
p2928
aS'55,43,277,75,192'
p2929
aS'32,84,302,79,193'
p2930
aS'45,111,145,60,204'
p2931
aS'37,81,306,81,306'
p2932
aasI2
(lp2933
(lp2934
S'23,72,196,72,196'
p2935
aS'29,67,196,67,196'
p2936
aS'19,50,194,50,194'
p2937
aS'30,49,199,49,199'
p2938
aS'1,54,157,54,157'
p2939
aS'50,55,158,55,158'
p2940
aS'40,51,165,51,165'
p2941
aS'6,72,152,72,152'
p2942
aS'12,62,155,62,155'
p2943
aS'38,92,198,92,198'
p2944
aS'21,106,183,106,183'
p2945
aS'45,100,146,100,146'
p2946
aS'11,83,152,83,152'
p2947
aS'57,83,151,83,151'
p2948
aa(lp2949
S'3,16,30,66,184'
p2950
aS'14,17,62,73,181'
p2951
aS'37,79,301,74,182'
p2952
aS'32,77,297,72,177'
p2953
aS'35,49,263,81,182'
p2954
aS'55,42,260,84,176'
p2955
aS'44,49,291,80,177'
p2956
aasI3
(lp2957
(lp2958
S'45,90,206,97,170'
p2959
aS'53,66,203,92,190'
p2960
aS'21,88,151,88,151'
p2961
aS'57,69,195,69,195'
p2962
aS'1,47,176,47,176'
p2963
aS'19,46,168,46,168'
p2964
aS'15,56,155,56,155'
p2965
aS'16,56,154,56,154'
p2966
aS'29,52,155,52,155'
p2967
aS'17,65,143,65,143'
p2968
aS'26,61,141,61,141'
p2969
aS'28,50,195,50,195'
p2970
aS'12,58,184,58,184'
p2971
aS'40,44,185,44,185'
p2972
aa(lp2973
S'3,17,336,68,173'
p2974
aS'14,18,309,75,172'
p2975
aS'18,31,287,83,168'
p2976
aS'10,40,271,76,182'
p2977
aS'37,77,62,73,166'
p2978
aS'32,70,71,71,167'
p2979
aS'20,19,181,82,169'
p2980
aS'52,28,270,77,164'
p2981
aS'47,25,180,64,165'
p2982
aasI4
(lp2983
(lp2984
S'58,32,214,32,214'
p2985
aS'46,38,201,38,201'
p2986
aS'56,34,204,34,204'
p2987
aS'51,28,198,28,198'
p2988
aS'27,42,193,42,193'
p2989
aS'41,42,191,42,191'
p2990
aS'50,40,194,40,194'
p2991
aS'6,50,195,50,195'
p2992
aS'8,52,200,52,200'
p2993
aS'47,23,180,23,180'
p2994
aS'40,39,168,39,168'
p2995
aS'30,47,164,47,164'
p2996
aS'28,45,178,45,178'
p2997
aS'31,42,181,42,181'
p2998
aa(lp2999
S'3,42,314,42,314'
p3000
aS'24,39,129,27,200'
p3001
aS'55,38,129,27,220'
p3002
aS'37,75,55,30,186'
p3003
aS'27,75,89,42,193'
p3004
aS'41,81,83,42,191'
p3005
aS'14,21,291,48,205'
p3006
aS'32,66,70,40,182'
p3007
aS'43,100,105,48,192'
p3008
aS'63,45,124,45,124'
p3009
aassg652
(lp3010
(g654
(g658
S'\x16\x8d\xe7F\xb2t\xa9\xbf'
p3011
tp3012
Rp3013
g654
(g658
S'\x1de\x8d\xcd\xda\xbf\xb9\xbf'
p3014
tp3015
Rp3016
tp3017
a(g654
(g658
S'h)\xe9fO\xa3\x88\xbf'
p3018
tp3019
Rp3020
g654
(g658
S'\xd6\xcc\x04p\xbc\x8c\xb9\xbf'
p3021
tp3022
Rp3023
tp3024
a(g654
(g658
S'\x88P\x8c\xdd\x14\xc3\x8f?'
p3025
tp3026
Rp3027
g654
(g658
S'\x88\xf67\xcaN\xde\xbb\xbf'
p3028
tp3029
Rp3030
tp3031
a(g654
(g658
S'v\n\x83f\xc7\xa2\xa2?'
p3032
tp3033
Rp3034
g654
(g658
S'\xdd\xb1\x8b\xe4\x8a?\xbd\xbf'
p3035
tp3036
Rp3037
tp3038
asg752
(lp3039
g654
(g658
S'\xe2\xe9\xd7\xfb\xb3C\xed?'
p3040
tp3041
Rp3042
ag654
(g658
S'=\x9a\xddVdI\xed?'
p3043
tp3044
Rp3045
ag654
(g658
S'\xfaR\x9f\x068\xd5\xed?'
p3046
tp3047
Rp3048
ag654
(g658
S"\x82\xdb'\x8f\xc0]\xee?"
p3049
tp3050
Rp3051
ag654
(g658
S"\x82\xdb'\x8f\xc0]\xee?"
p3052
tp3053
Rp3054
asg796
(dp3055
g798
g799
sg800
g801
sg806
g807
sg808
(lp3056
(lp3057
asg811
g6
(S'\x00\x00\x00\x00\x00\x00'
p3058
tp3059
Rp3060
sg815
g816
ssg824
(lp3061
g826
a(lp3062
g803
ag830
ag836
ag868
ag805
aa(lp3063
g830
ag805
ag803
ag829
ag836
aa(lp3064
g830
ag805
ag836
ag803
ag829
aa(lp3065
g830
ag836
ag805
ag829
ag858
aasg847
(g654
(g658
S'AR\xccR"A\xb1\xbf'
p3066
tp3067
Rp3068
g654
(g658
S'\xda\xa4A\x8dK\xbc\xba\xbf'
p3069
tp3070
Rp3071
tp3072
sg855
g856
ssI8
(dp3073
g2
(lp3074
I0
aI0
aI0
aI0
aI0
aI0
aI0
aI0
aI0
aI1
aI0
aI1
asg4
(lp3075
(g6
(S'\x00\x08\x1a\x00\x00\x00'
p3076
tp3077
Rp3078
g10
((lp3079
g12
ag13
a(lp3080
F0.8317365367469014
aF0.018946322907428814
aF0.2735078772807209
aF0.8969923331067169
aF0.5484827660435994
aF0.44523752528031035
aF0.5810592671913408
aF0.6177420090042185
aF0.8647545287129836
aF0.410676432650085
aF0.4450337168676728
aF0.7158401293177431
aF0.5898155922918371
aF0.7639239611508476
aF0.8349189171567348
aF0.8361764079537566
aF0.2822524297722623
aF0.1595795540718361
aF0.5794865721467842
aF0.8761823810201235
aF0.19867493777904088
aF0.5886409973074775
aF0.061281309473829815
atp3081
tp3082
a(g6
(S'\x00\x08\x1b\x00\x00\x00'
p3083
tp3084
Rp3085
g20
(lp3086
F0.007133474919204463
aF0.5569754627295499
aF0.10672290534632989
aF0.3428931587907932
aF0.11949349242675189
aF0.11331289442732018
aF0.6208500866118514
aF0.09350086361297083
aF0.6812545846130644
aF0.21737651477991482
aF0.6313335684054125
aF0.9627761419999141
aF0.22720972263465877
aF0.4506153148554205
aF0.060797453706214255
aF0.24076537648697216
aF0.8687193352094839
aF0.30166574513907984
aF0.9361983161071916
aF0.2950162552522687
aF0.5081811618588411
aF0.9652805757648749
aF0.19652034234858895
atp3087
a(g6
(S'\x00\x08\x1f\x00\x00\x00'
p3088
tp3089
Rp3090
g10
((lp3091
g12
ag13
a(lp3092
F0.9338084254431769
aF0.4240100323445747
aF0.6859753536429318
aF0.9614717732125173
aF0.016919582244600218
aF0.14432762434144264
aF0.2593311570195044
aF0.3054743145673271
aF0.08751965745888379
aF0.1700238952370572
aF0.5236437255166358
aF0.2017321124169701
aF0.37746010024437726
aF0.4463054100894236
aF0.2211786528883829
aF0.008012974522699445
aF0.7432334228734511
aF0.7102678221553492
aF0.9988850231121361
aF0.8322196846695259
aF0.2858967457782574
aF0.8895806401959079
aF0.32763969164771756
atp3093
tp3094
a(g6
(S'\x00\x08 \x00\x00\x00'
p3095
tp3096
Rp3097
g20
(lp3098
F0.5304435995508006
aF0.7496872687730659
aF0.9223238502663477
aF0.2859651560018295
aF0.0875208339428315
aF0.5162782257282704
aF0.5426703829570081
aF0.05813438393169257
aF0.3561440766661965
aF0.18634619903695782
aF0.763158062801173
aF0.7388775205657263
aF0.955256565312877
aF0.19201013393210165
aF0.05626785898359821
aF0.5786142235632578
aF0.512635766458246
aF0.9134179058135462
aF0.3080376079771209
aF0.5141145712082953
aF0.8195107316753992
aF0.30871348092298934
aF0.2848909370515764
atp3099
a(g6
(S'\x00\x08$\x00\x00\x00'
p3100
tp3101
Rp3102
g10
((lp3103
g12
ag13
a(lp3104
F0.5227799816331384
aF0.28404692838573453
aF0.012723530838219421
aF0.5606663187512769
aF0.8731611951125888
aF0.42822632827508533
aF0.7743884862552225
aF0.0456553160576898
aF0.6381737337473051
aF0.215436794898617
aF0.18708262242670903
aF0.4439869910726971
aF0.3694959291240528
aF0.28171992411392077
aF0.455156780513291
aF0.342232304362171
aF0.6000359104783385
aF0.4960398239058553
aF0.7276357033219953
aF0.7005382202105972
aF0.5262823186584723
aF0.639935972693344
aF0.5781735381043059
atp3105
tp3106
a(g6
(S'\x00\x08%\x00\x00\x00'
p3107
tp3108
Rp3109
g20
(lp3110
F0.6586634382537444
aF0.9127266935185682
aF0.4955881875343098
aF0.21880117686785183
aF0.5355445271716703
aF0.5888959787037569
aF0.10646515780160715
aF0.9924334494386746
aF0.6571827632439174
aF0.9610793869572501
aF0.7307258276607644
aF0.004417533218067038
aF0.14826205729771968
aF0.29108624980397857
aF0.1658812619060388
aF0.31436837263340833
aF0.6637170618251081
aF0.2651831544602826
aF0.7372909487262601
aF0.09994770677459275
aF0.3989753010270043
aF0.26714245686130755
aF0.8393483394109691
atp3111
a(g6
(S'\x00\x08)\x00\x00\x00'
p3112
tp3113
Rp3114
g10
((lp3115
g12
ag13
a(lp3116
F0.4755257965191729
aF0.8910828123797961
aF0.47720342116694037
aF0.42956447721360813
aF0.49228118181283775
aF0.6460853603470406
aF0.2653354140847549
aF0.7547029314226277
aF0.6028374553456477
aF0.6706786891410487
aF0.1039973575177362
aF0.2612394834094991
aF0.3548473866270505
aF0.922092824439198
aF0.15724067831505018
aF0.2369545796524879
aF0.022766635418740244
aF0.20437876417320033
aF0.4817375392632074
aF0.062394256449972874
aF0.25634056065547495
aF0.17504126261037933
aF0.26516758080858405
atp3117
tp3118
a(g6
(S'\x00\x08*\x00\x00\x00'
p3119
tp3120
Rp3121
g20
(lp3122
F0.3920633350096844
aF0.4959499685518738
aF0.20720069625529125
aF0.4848977746764407
aF0.36101868847318275
aF0.9411658569084216
aF0.020490027278589173
aF0.9927492731738677
aF0.031551747070830305
aF0.15413925489377078
aF0.6827525031700563
aF0.2178225216402936
aF0.020765869338681298
aF0.9040017554204273
aF0.7703364795302197
aF0.6992136936404053
aF0.4247390593094227
aF0.8314537040836545
aF0.26367657054209126
aF0.40072900980048154
aF0.4506761492264133
aF0.6303846116279564
aF0.13322297812355288
atp3123
a(g6
(S'\x00\x08.\x00\x00\x00'
p3124
tp3125
Rp3126
g10
((lp3127
g12
ag13
a(lp3128
F0.4987190185217172
aF0.9337905926383179
aF0.3330133853479882
aF0.20105461353736098
aF0.8785674165630805
aF0.8067187459771248
aF0.04677721882847907
aF0.7044496935259111
aF0.14033595021691214
aF0.31386045528803763
aF0.44802549604149033
aF0.48398279336390715
aF0.6339050360700123
aF0.04005098026407139
aF0.7139547497252781
aF0.44985185747925227
aF0.8153014765576265
aF0.9262231796208694
aF0.6300398562558154
aF0.2733545413234828
aF0.6468515953824453
aF0.364175887062833
aF0.9253619423227103
atp3129
tp3130
a(g6
(S'\x00\x08/\x00\x00\x00'
p3131
tp3132
Rp3133
g20
(lp3134
F0.920838190223732
aF0.6228838023096025
aF0.6663788819067259
aF0.6593123455201165
aF0.6226607364220188
aF0.3393390352504735
aF0.6143582755445216
aF0.46002965526953576
aF0.19919656643624317
aF0.33752987238411913
aF0.13878294000571423
aF0.5085573778060993
aF0.7500657889763113
aF0.6234636150837051
aF0.477979393910581
aF0.7366612632344279
aF0.7658158767537263
aF0.9296057693571007
aF0.6370627449710892
aF0.4463838936151583
aF0.5886367781654415
aF0.4870885469645151
aF0.7875001845349315
atp3135
a(g6
(S'\x00\x083\x00\x00\x00'
p3136
tp3137
Rp3138
g10
((lp3139
g12
ag13
a(lp3140
F0.5865865705067382
aF0.5978631902834198
aF0.21101046114535915
aF0.2178531093807441
aF0.5849344498113621
aF0.0026698774779826406
aF0.9443248698189456
aF0.3919477669748903
aF0.8161078790196599
aF0.7223652316813923
aF0.7163581285211079
aF0.8974232712684552
aF0.7515582658741276
aF0.8059847913745498
aF0.10127565670726357
aF0.6026726629649721
aF0.45804984582880015
aF0.6210075148177906
aF0.523819195738917
aF0.11052689462848608
aF0.021252381590158742
aF0.542755125390855
aF0.6667888959732641
atp3141
tp3142
a(g6
(S'\x00\x084\x00\x00\x00'
p3143
tp3144
Rp3145
g20
(lp3146
F0.3613933131256304
aF0.28217737953095545
aF0.014300390062922386
aF0.6152141999020478
aF0.682112394640419
aF0.4540103540398288
aF0.8975156928131698
aF0.2158365254734247
aF0.8297743596482928
aF0.09472244409463815
aF0.5296653604064319
aF0.6627893887124139
aF0.6771246930304664
aF0.24924150054448513
aF0.9994035638467622
aF0.0681658916755431
aF0.06827412381071629
aF0.31804428272457774
aF0.20491518276268939
aF0.009977983976652172
aF0.609061118393846
aF0.988933413370509
aF0.03525022288550672
atp3147
a(g6
(S'\x00\x088\x00\x00\x00'
p3148
tp3149
Rp3150
g10
((lp3151
g12
ag13
a(lp3152
F0.8985432163213447
aF0.8706962618503228
aF0.824262431108547
aF0.3450365725540969
aF0.6728377194571448
aF0.14669872602429457
aF0.12289621021635033
aF0.5615128066532021
aF0.856478440708845
aF0.19778006759609035
aF0.21041855273756982
aF0.8359189214033386
aF0.7373806557485199
aF0.1294402973535702
aF0.14998800107718924
aF0.4146526775276812
aF0.017880480172984714
aF0.6733460359601555
aF0.6940613034215906
aF0.5989570904640602
aF0.9312090489381937
aF0.15507416334303858
aF0.8812746794662536
atp3153
tp3154
a(g6
(S'\x00\x089\x00\x00\x00'
p3155
tp3156
Rp3157
g20
(lp3158
F0.8648509546517428
aF0.7228786155154374
aF0.6384856179544354
aF0.6490677531058923
aF0.5157958198811519
aF0.2959481014886227
aF0.7660868623285426
aF0.06270379839390983
aF0.9134015393014207
aF0.7873760746908207
aF0.4347124561342328
aF0.8497802288184064
aF0.05254414708200483
aF0.9031429563175074
aF0.3707580233141028
aF0.02685382980076656
aF0.7163520475069878
aF0.34688207341059196
aF0.9761952512740196
aF0.3351393587881675
aF0.8982525403436643
aF0.6975706164058799
aF0.8049317692464311
atp3159
a(g6
(S'\x00\t\x01\x00\x00\x00'
p3160
tp3161
Rp3162
g10
((lp3163
g12
ag13
a(lp3164
F0.4171038904008515
aF0.45194924122415714
aF0.45839013398751205
aF0.9109259591706991
aF0.6221742754351836
aF0.993926418128504
aF0.905383373845252
aF0.012964422587908198
aF0.6024545885550222
aF0.042406667489023664
aF0.6664752115323014
aF0.9212139164673018
aF0.06582999504304166
aF0.3546695240341118
aF0.14528262733137587
aF0.835449172696407
aF0.9863102494967482
aF0.727394930157058
aF0.5041361559104804
aF0.9507443661045877
aF0.3286904835386283
aF0.28916730606235796
aF0.45722489216834683
atp3165
tp3166
a(g6
(S'\x00\t\x02\x00\x00\x00'
p3167
tp3168
Rp3169
g20
(lp3170
F0.17189109758141585
aF0.4052641386500867
aF0.2873578061234525
aF0.8483305162607432
aF0.38710269993822166
aF0.8401419908774056
aF0.12248075927916824
aF0.751597617106444
aF0.9683483348493757
aF0.6568650989512573
aF0.3491690303619628
aF0.236716757618604
aF0.793638897594806
aF0.07199313196263535
aF0.7989409388039828
aF0.08344971617865338
aF0.4887392910922669
aF0.28493524986183083
aF0.6538984643388709
aF0.6775607386648727
aF0.5316218244904717
aF0.8697377608761754
aF0.25290629970066436
atp3171
a(g6
(S'\x00\t\x06\x00\x00\x00'
p3172
tp3173
Rp3174
g10
((lp3175
g12
ag13
a(lp3176
F0.8840262903918253
aF0.3463107343669214
aF0.5925390946524706
aF0.8989603102832737
aF0.9535043556911817
aF0.20985578559260776
aF0.5411330004387641
aF0.1316548325688749
aF0.027992631585964545
aF0.5727205535396913
aF0.35720161229903
aF0.20975756445001525
aF0.42055774716900773
aF0.978417909216401
aF0.034263521107623984
aF0.22266004075402523
aF0.3107139546101162
aF0.01429926456517161
aF0.7084484349394619
aF0.3157667095257042
aF0.3731453908239982
aF0.5909651060311476
aF0.8431688910924027
atp3177
tp3178
a(g6
(S'\x00\t\x07\x00\x00\x00'
p3179
tp3180
Rp3181
g20
(lp3182
F0.07431168441078428
aF0.8980685857986409
aF0.8932608581498762
aF0.058668757566131324
aF0.7960971379736973
aF0.1862486088058708
aF0.4071043431348692
aF0.26683751838533576
aF0.3019456106310011
aF0.6934326872648009
aF0.5209021019744324
aF0.8368979027018869
aF0.17322723861073752
aF0.6119055397844996
aF0.10073661898187525
aF0.17210543940487588
aF0.4487253092200125
aF0.9610025796417135
aF0.8239762924229552
aF0.4614743909108736
aF0.9622937642160404
aF0.6131441938292879
aF0.9393653648065056
atp3183
a(g6
(S'\x00\t\x0b\x00\x00\x00'
p3184
tp3185
Rp3186
g10
((lp3187
g12
ag13
a(lp3188
F0.3817392390398313
aF0.22043305097345356
aF0.8260446857968502
aF0.2895900077238702
aF0.08689033381866318
aF0.5566470002236116
aF0.2894138327370156
aF0.7013714938127559
aF0.7123276158207599
aF0.17079229963199805
aF0.6949041292783618
aF0.23316441600284588
aF0.7265714535885556
aF0.8058919992247161
aF0.19313644566391652
aF0.1800172563402599
aF0.10211730388579443
aF0.4641556680403245
aF0.87497511063198
aF0.6052194432395807
aF0.013094071583123923
aF0.8475512697641812
aF0.2870828278772307
atp3189
tp3190
a(g6
(S'\x00\t\x0c\x00\x00\x00'
p3191
tp3192
Rp3193
g20
(lp3194
F0.6046015587059677
aF0.39774778847408676
aF0.24063914139755216
aF0.5278631161212667
aF0.3029178211607386
aF0.09288735957696925
aF0.7899218483654171
aF0.14047126062025572
aF0.8686613854170042
aF0.6682027826531898
aF0.20061004111631653
aF0.17532628661256566
aF0.8007706945552593
aF0.6945724637364193
aF0.34654871750028615
aF0.905767594384282
aF0.8551772399814128
aF0.3496293762423749
aF0.6919577727151437
aF0.5420594691417256
aF0.08685652709454439
aF0.28745648144371594
aF0.5567860565697895
atp3195
a(g6
(S'\x00\t\x10\x00\x00\x00'
p3196
tp3197
Rp3198
g10
((lp3199
g12
ag13
a(lp3200
F0.34126232513474875
aF0.12657939316992506
aF0.64871664075967
aF0.2958435487778611
aF0.23923560014040623
aF0.4602822440450056
aF0.569385529115377
aF0.5101321829855519
aF0.9272855476220266
aF0.48391773878974964
aF0.9909229752124423
aF0.4115863730462649
aF0.4587518702308627
aF0.40574119199611336
aF0.04415860008588668
aF0.3624546941078062
aF0.3652539343747223
aF0.9705586039386136
aF0.05957938521571815
aF0.7327745682087903
aF0.42227927303452917
aF0.756930878079882
aF0.2372173030508874
atp3201
tp3202
a(g6
(S'\x00\t\x11\x00\x00\x00'
p3203
tp3204
Rp3205
g20
(lp3206
F0.4737361018115338
aF0.16408130516839436
aF0.9186953768100689
aF0.5284601545951453
aF0.7786376720813383
aF0.9361092870703542
aF0.4643226821185462
aF0.19682807926816026
aF0.6177338234754014
aF0.5868596491769732
aF0.9562505037770731
aF0.18925425018334285
aF0.03517223517124535
aF0.5608668394905322
aF0.2858247220221344
aF0.40148468025857464
aF0.36208352766645957
aF0.041084524084299856
aF0.5844333481009942
aF0.9363097292902329
aF0.8648369203757599
aF0.40835038395356327
aF0.7467653776493393
atp3207
a(g6
(S'\x00\t\x15\x00\x00\x00'
p3208
tp3209
Rp3210
g10
((lp3211
g12
ag13
a(lp3212
F0.8420659642699025
aF0.7009754250934561
aF0.7107308619706152
aF0.57976573009252
aF0.21049352853336178
aF0.06322221114157911
aF0.0953082633099297
aF0.017480670309337754
aF0.973193264346803
aF0.04785910341845323
aF0.03241237213709969
aF0.9859278314011233
aF0.3903447904422287
aF0.41832688378784666
aF0.6156011304050806
aF0.9316743659629703
aF0.00031747798215309153
aF0.6527137280705382
aF0.4942266522832437
aF0.4570685363045348
aF0.6429299996243539
aF0.8138200660266887
aF0.7682672771294317
atp3213
tp3214
a(g6
(S'\x00\t\x16\x00\x00\x00'
p3215
tp3216
Rp3217
g20
(lp3218
F0.5529607001171581
aF0.15788437528625499
aF0.9616940715824321
aF0.7709242818977415
aF0.24179558880339447
aF0.2415005946091161
aF0.8478525267282525
aF0.46779513464932365
aF0.49834458111527513
aF0.22067442622428102
aF0.19865212458340176
aF0.8294067412404813
aF0.5511216704729489
aF0.9279004747191522
aF0.6919232341418637
aF0.3711814515749201
aF0.5489911220897052
aF0.19110943939727143
aF0.5926551247859738
aF0.01268886270174352
aF0.4808360173462526
aF0.7959123949127893
aF0.9110110041318163
atp3219
asg167
(dp3220
I1
(lp3221
(lp3222
S'101,180,232,181,232'
p3223
aS'121,136,10,191,211'
p3224
aa(lp3225
S'113,174,226,174,226'
p3226
aS'126,172,237,172,237'
p3227
aS'101,181,232,181,232'
p3228
aasI2
(lp3229
(lp3230
S'14,42,341,53,195'
p3231
aS'3,49,376,19,250'
p3232
aa(lp3233
S'19,67,188,67,188'
p3234
aasI3
(lp3235
(lp3236
S'70,120,23,171,145'
p3237
aS'88,128,10,168,159'
p3238
aS'107,106,23,168,161'
p3239
aS'90,214,90,179,146'
p3240
aS'118,280,227,172,161'
p3241
aS'39,112,321,182,166'
p3242
aS'66,64,316,162,171'
p3243
aS'63,32,138,165,164'
p3244
aS'95,116,323,116,323'
p3245
aa(lp3246
S'68,172,154,172,154'
p3247
aasI4
(lp3248
(lp3249
S'38,71,121,61,328'
p3250
aS'2,97,139,100,346'
p3251
aS'22,10,167,58,314'
p3252
aa(lp3253
S'16,65,335,65,335'
p3254
aasI5
(lp3255
(lp3256
S'83,235,333,118,366'
p3257
aS'118,248,348,118,353'
p3258
aS'129,183,335,121,340'
p3259
aS'123,194,270,102,332'
p3260
aS'115,120,10,109,339'
p3261
aa(lp3262
S'72,116,332,116,332'
p3263
aasI6
(lp3264
(lp3265
S'121,120,216,91,68'
p3266
aS'7,55,215,45,212'
p3267
aS'95,95,193,98,77'
p3268
aS'59,183,112,101,65'
p3269
aS'73,57,217,57,217'
p3270
aa(lp3271
S'82,84,56,84,56'
p3272
aS'108,83,54,83,54'
p3273
aasI7
(lp3274
(lp3275
S'121,87,158,74,81'
p3276
aS'74,17,150,54,60'
p3277
aS'73,21,193,84,73'
p3278
aa(lp3279
S'101,60,50,60,50'
p3280
aasI8
(lp3281
(lp3282
S'73,15,207,31,91'
p3283
aS'61,122,38,48,62'
p3284
aS'83,117,37,61,53'
p3285
aa(lp3286
S'86,44,53,44,53'
p3287
aasI9
(lp3288
(lp3289
S'73,28,248,34,100'
p3290
aa(lp3291
S'103,25,48,25,48'
p3292
aS'90,39,48,39,48'
p3293
aS'111,25,57,25,57'
p3294
aS'77,32,57,32,57'
p3295
aS'105,38,55,38,55'
p3296
aS'122,38,55,38,55'
p3297
aS'128,34,59,34,59'
p3298
aS'127,42,52,42,52'
p3299
aS'64,42,60,42,60'
p3300
aS'75,44,61,44,61'
p3301
aS'113,41,62,41,62'
p3302
aS'115,40,69,40,69'
p3303
aasI10
(lp3304
(lp3305
S'73,28,248,21,89'
p3306
aa(lp3307
S'103,25,48,25,48'
p3308
aS'77,32,57,32,57'
p3309
aS'111,25,57,25,57'
p3310
aS'64,42,60,42,60'
p3311
aS'105,38,55,38,55'
p3312
aS'122,38,55,38,55'
p3313
aS'127,42,52,42,52'
p3314
aS'128,34,59,34,59'
p3315
aassg652
(lp3316
(g654
(g658
S'\xfc\xcbc\xe5M\xdd\xb8\xbf'
p3317
tp3318
Rp3319
g654
(g658
S'\xb5\x91zZ\x97\xa2\xb1\xbf'
p3320
tp3321
Rp3322
tp3323
a(g654
(g658
S'\xa6z\x1b\x10\x898\xbb\xbf'
p3324
tp3325
Rp3326
g654
(g658
S'\xcf4\xab\xdf>\x8d\xad\xbf'
p3327
tp3328
Rp3329
tp3330
a(g654
(g658
S'\xf3h \x0b\x94\x01\xbb\xbf'
p3331
tp3332
Rp3333
g654
(g658
S'\x04o$\x1d\x90\x1e\x9a\xbf'
p3334
tp3335
Rp3336
tp3337
a(g654
(g658
S'\xda`G\xa1\xff\xe5\xbb\xbf'
p3338
tp3339
Rp3340
g654
(g658
S'\xd5+u\x81D\xcd\x8b?'
p3341
tp3342
Rp3343
tp3344
a(g654
(g658
S'\x1d,\xc6\x8b\x85\xb8\xb2\xbf'
p3345
tp3346
Rp3347
g654
(g658
S'J\xfc\xeb\xacry\xb0?'
p3348
tp3349
Rp3350
tp3351
a(g654
(g658
S'YV-\x99\xc7\xda\x97\xbf'
p3352
tp3353
Rp3354
g654
(g658
S'\x90\x9c\xfd\xb5\x1d\xf9\xc0?'
p3355
tp3356
Rp3357
tp3358
a(g654
(g658
S'\x04\x80\xc0\x92\xc2\xaez\xbf'
p3359
tp3360
Rp3361
g654
(g658
S'\xe5C\xaa\x14\xb8m\xc7?'
p3362
tp3363
Rp3364
tp3365
a(g654
(g658
S'm\x8e:,\xbe\x8a~?'
p3366
tp3367
Rp3368
g654
(g658
S'\x18\xd8u\xa2\x04\xc1\xcd?'
p3369
tp3370
Rp3371
tp3372
a(g654
(g658
S'\xec\xa2\x1c\x19k\\\xc7?'
p3373
tp3374
Rp3375
g654
(g658
S'\x0b\x05\xcc,\xa6\x19\xd1?'
p3376
tp3377
Rp3378
tp3379
a(g654
(g658
S'm\x8e:,\xbe\x8a~?'
p3380
tp3381
Rp3382
g654
(g658
S'\x18\xd8u\xa2\x04\xc1\xcd?'
p3383
tp3384
Rp3385
tp3386
a(g654
(g658
S'L\x94\x8f\x9aW\xdf\xaf\xbf'
p3387
tp3388
Rp3389
g654
(g658
S'nT\xfa\xf5`\xf5\xd3?'
p3390
tp3391
Rp3392
tp3393
a(g654
(g658
S'm\x8e:,\xbe\x8a~?'
p3394
tp3395
Rp3396
g654
(g658
S'\x18\xd8u\xa2\x04\xc1\xcd?'
p3397
tp3398
Rp3399
tp3400
asg752
(lp3401
g654
(g658
S'\xe2\xe9\xd7\xfb\xb3C\xed?'
p3402
tp3403
Rp3404
ag654
(g658
S';\x9a\xddVdI\xed?'
p3405
tp3406
Rp3407
ag654
(g658
S'\xf5[\x8d*\xf0d\xec?'
p3408
tp3409
Rp3410
ag654
(g658
S'ZgL\x82\x16\xee\xec?'
p3411
tp3412
Rp3413
ag654
(g658
S'\x12\x1a\x08,\xe4s\xed?'
p3414
tp3415
Rp3416
ag654
(g658
S'\xdd\x8b-\xeapc\xee?'
p3417
tp3418
Rp3419
ag654
(g658
S'\r\xbc]\x1a\xa1\x93\xee?'
p3420
tp3421
Rp3422
ag654
(g658
S'\xd8\x8b$\xf3U\x90\xee?'
p3423
tp3424
Rp3425
ag654
(g658
S'\x02\x06\xfd\x0e\xeb2\xee?'
p3426
tp3427
Rp3428
ag654
(g658
S' \xd3k:\x9d\xd7\xed?'
p3429
tp3430
Rp3431
ag654
(g658
S'\x02\x06\xfd\x0e\xeb2\xee?'
p3432
tp3433
Rp3434
ag654
(g658
S'x\x80n\x92J\xda\xed?'
p3435
tp3436
Rp3437
ag654
(g658
S'\x02\x06\xfd\x0e\xeb2\xee?'
p3438
tp3439
Rp3440
asg796
(dp3441
g798
g799
sg800
g801
sg806
g807
sg808
(lp3442
(lp3443
asg811
g6
(S'\x00\x00\x00\x00\x00\x00'
p3444
tp3445
Rp3446
sg815
g816
ssg824
(lp3447
g826
a(lp3448
g865
ag839
ag829
ag828
ag860
aa(lp3449
g860
ag829
ag833
ag858
ag802
aa(lp3450
g829
ag832
ag868
ag860
ag833
aa(lp3451
g829
ag832
ag860
ag802
ag833
aa(lp3452
g832
ag839
ag836
ag829
ag805
aa(lp3453
g832
ag839
ag829
ag836
ag857
aa(lp3454
g832
ag829
ag839
ag836
ag833
aa(lp3455
g832
ag839
ag829
ag836
ag833
aa(lp3456
g832
ag829
ag839
ag836
ag833
aa(lp3457
g832
ag839
ag829
ag836
ag833
aa(lp3458
g832
ag836
ag839
ag829
ag833
aa(lp3459
g832
ag839
ag829
ag836
ag833
aasg847
(g654
(g658
S'AR\xccR"A\xb1\xbf'
p3460
tp3461
Rp3462
g654
(g658
S'\xda\xa4A\x8dK\xbc\xba\xbf'
p3463
tp3464
Rp3465
tp3466
sg855
g856
ssI9
(dp3467
g2
(lp3468
I0
aI0
aI0
aI0
asg4
(lp3469
(g6
(S'\x00\x08\x1a\x00\x00\x00'
p3470
tp3471
Rp3472
g10
((lp3473
g12
ag13
a(lp3474
F0.4450274557886794
aF0.9176252850990063
aF0.9214199862598843
aF0.2505546509463118
aF0.289986836577683
aF0.11880659846093578
aF0.8542135333412216
aF0.5481630035392285
aF0.02346730239542394
aF0.44288766298287885
aF0.9200038648582193
aF0.17166902554284602
aF0.6022330745144004
aF0.4611553665828235
aF0.3764211798477062
aF0.6509521092860701
aF0.5005793270164077
aF0.5896536466630181
aF0.7397159984382586
aF0.4943390203890611
aF0.5060886685908795
aF0.01987865493159091
aF0.30895449721494095
atp3475
tp3476
a(g6
(S'\x00\x08\x1b\x00\x00\x00'
p3477
tp3478
Rp3479
g20
(lp3480
F0.9952416815357321
aF0.2742136351533737
aF0.7965980969633204
aF0.6812403651963976
aF0.14412453845810436
aF0.6783788356402254
aF0.9288892983671428
aF0.8431565929815482
aF0.9186619052845441
aF0.34606678323827256
aF0.30186835463877737
aF0.5655299130352422
aF0.34327350167529835
aF0.7007385909795077
aF0.31321067352970733
aF0.5842018210056944
aF0.8163170033063157
aF0.5966346308553765
aF0.7674872716593719
aF0.8674070071725819
aF0.3247502074509281
aF0.8918224360940232
aF0.5222787636407183
atp3481
a(g6
(S'\x00\x08\x1f\x00\x00\x00'
p3482
tp3483
Rp3484
g10
((lp3485
g12
ag13
a(lp3486
F0.9164430522406758
aF0.9878542898014641
aF0.36003741041117265
aF0.7609467327701606
aF0.9549864824827766
aF0.23177946063901833
aF0.6717330559965123
aF0.9627988601822834
aF0.05520890974175341
aF0.0604643624668697
aF0.1285125087838539
aF0.5040580749547456
aF0.9670572660176371
aF0.2980227774352281
aF0.40907347291202056
aF0.04934714156711473
aF0.4932859381029211
aF0.2689970862761485
aF0.8103708239325319
aF0.17205347153875006
aF0.5235467892075754
aF0.6955053826362374
aF0.8922547397214287
atp3487
tp3488
a(g6
(S'\x00\x08 \x00\x00\x00'
p3489
tp3490
Rp3491
g20
(lp3492
F0.6917856132335793
aF0.948397596393142
aF0.649984633708535
aF0.12696376255254438
aF0.6662103266069617
aF0.13402882055001686
aF0.37115637922574995
aF0.13552678741445368
aF0.4492227959689179
aF0.0477587781462282
aF0.6634612900627027
aF0.6711030304956962
aF0.5643891922704863
aF0.46243768046353806
aF0.8823415707759388
aF0.2027578399093214
aF0.282355396200747
aF0.4132779800076847
aF0.7904005246329038
aF0.023961440744360685
aF0.09912986021170911
aF0.278135563901696
aF0.9326736750348822
atp3493
a(g6
(S'\x00\x08$\x00\x00\x00'
p3494
tp3495
Rp3496
g10
((lp3497
g12
ag13
a(lp3498
F0.7701906496020962
aF0.9672850100870267
aF0.6154361575146521
aF0.6473650559118045
aF0.19383942670912924
aF0.5766052865040597
aF0.8236901764755057
aF0.8881543101489212
aF0.6669989804752643
aF0.22714393373708686
aF0.18905048667737556
aF0.7068777987213916
aF0.23873260948067687
aF0.7251824520827982
aF0.7132388310036241
aF0.7576994685531528
aF0.1348511027986956
aF0.46809691482241844
aF0.288764691399251
aF0.06235758266566338
aF0.9484728313614555
aF0.15437407194558073
aF0.9065399490026331
atp3499
tp3500
a(g6
(S'\x00\x08%\x00\x00\x00'
p3501
tp3502
Rp3503
g20
(lp3504
F0.7119643343133822
aF0.21244122112710584
aF0.7866935899592583
aF0.8124784052672264
aF0.10210148314118772
aF0.514752462737329
aF0.621719322366027
aF0.43863314212960725
aF0.8068363756515907
aF0.2467107021035294
aF0.26528288431092073
aF0.6884673643370923
aF0.6011815759330104
aF0.7860193712162186
aF0.6695352187626481
aF0.9833847951991747
aF0.5072092101411458
aF0.7606710071412274
aF0.7593518541726201
aF0.3176292675813238
aF0.3989082981400439
aF0.7853089112694258
aF0.8204538225606712
atp3505
a(g6
(S'\x00\x08)\x00\x00\x00'
p3506
tp3507
Rp3508
g10
((lp3509
g12
ag13
a(lp3510
F0.11212155751233155
aF0.04973737463363592
aF0.44277189313929355
aF0.040769501773220695
aF0.6507516223513989
aF0.15712935613575352
aF0.8024259014754593
aF0.0363396997894474
aF0.9477080852768109
aF0.7342399113815787
aF0.2974620270333488
aF0.1732686794453988
aF0.9515312212941681
aF0.13935118403072555
aF0.22249775389637794
aF0.2601779415693336
aF0.020849203293381358
aF0.0016315087979288379
aF0.2458701680020272
aF0.7802045791111328
aF0.42652553784978475
aF0.20276742348317045
aF0.48363095909011955
atp3511
tp3512
a(g6
(S'\x00\x08*\x00\x00\x00'
p3513
tp3514
Rp3515
g20
(lp3516
F0.046446295672552096
aF0.673004861101047
aF0.6065979350475295
aF0.18948391017479815
aF0.7485689369043658
aF0.9281831154416776
aF0.08509990201836681
aF0.4874191299730736
aF0.42442224351827185
aF0.9702746268669026
aF0.15867726444550878
aF0.6336737957211537
aF0.37743910888490984
aF0.5085640828316862
aF0.7578692335659986
aF0.23637748447616524
aF0.21310144025913957
aF0.9597864034964888
aF0.9927074784850034
aF0.9006909574783574
aF0.6362453830239316
aF0.12530347653521856
aF0.5747624774203549
atp3517
asg167
(dp3518
I1
(lp3519
(lp3520
S'69,126,120,184,155'
p3521
aS'88,183,369,187,159'
p3522
aS'107,179,376,201,175'
p3523
aS'70,196,351,170,164'
p3524
aS'119,160,361,192,194'
p3525
aS'79,124,343,185,174'
p3526
aa(lp3527
S'69,184,155,196,156'
p3528
aS'118,300,119,218,152'
p3529
aS'59,268,41,205,143'
p3530
aS'95,120,87,190,137'
p3531
aS'121,137,10,176,144'
p3532
aS'66,73,129,171,134'
p3533
aS'73,76,133,156,139'
p3534
aasI2
(lp3535
(lp3536
S'110,162,162,169,164'
p3537
aS'107,134,10,158,168'
p3538
aS'88,145,18,197,177'
p3539
aS'96,135,45,160,134'
p3540
aS'70,146,47,173,143'
p3541
aS'106,133,45,198,162'
p3542
aS'79,109,52,184,176'
p3543
aS'67,100,63,198,196'
p3544
aS'115,161,151,158,151'
p3545
aS'119,136,35,177,211'
p3546
aS'71,116,201,179,151'
p3547
aS'48,54,179,146,195'
p3548
aS'54,80,183,147,207'
p3549
aS'95,108,171,204,185'
p3550
aS'69,99,162,192,212'
p3551
aS'98,103,153,167,215'
p3552
aS'74,62,128,209,205'
p3553
aS'103,155,41,167,122'
p3554
aS'114,167,57,142,138'
p3555
aS'105,192,53,132,190'
p3556
aS'111,169,63,167,155'
p3557
aS'97,98,53,185,175'
p3558
aS'93,97,70,151,140'
p3559
aS'63,72,104,165,182'
p3560
aS'82,111,54,111,54'
p3561
aS'123,186,161,186,161'
p3562
aS'128,184,142,184,142'
p3563
aS'121,163,196,163,196'
p3564
aS'73,54,174,54,174'
p3565
aS'66,80,182,80,182'
p3566
aa(lp3567
S'83,259,133,174,184'
p3568
aS'59,255,211,181,194'
p3569
aS'118,307,190,150,181'
p3570
aasI3
(lp3571
(lp3572
S'148,215,98,215,98'
p3573
aS'174,216,97,216,97'
p3574
aS'169,220,105,220,105'
p3575
aS'152,217,112,217,112'
p3576
aS'177,194,102,194,102'
p3577
aS'167,208,115,208,115'
p3578
aS'165,230,92,230,92'
p3579
aS'132,241,96,241,96'
p3580
aa(lp3581
S'158,62,10,241,109'
p3582
aS'159,132,19,229,116'
p3583
aS'164,160,38,255,100'
p3584
aS'175,162,37,214,123'
p3585
aS'151,191,18,229,99'
p3586
aS'173,178,35,210,101'
p3587
aS'156,187,34,197,122'
p3588
aS'153,176,69,248,85'
p3589
aS'171,229,37,233,79'
p3590
aS'141,245,223,248,118'
p3591
aS'161,242,188,220,134'
p3592
aS'128,209,140,209,140'
p3593
aS'130,305,213,230,145'
p3594
aS'162,304,182,249,130'
p3595
aS'142,296,192,209,147'
p3596
aS'140,286,182,186,118'
p3597
aS'143,269,177,219,151'
p3598
aS'145,285,184,260,114'
p3599
aS'131,279,172,244,157'
p3600
aS'139,283,169,180,133'
p3601
aS'133,312,182,265,85'
p3602
aasI4
(lp3603
(lp3604
S'18,10,185,178,282'
p3605
aS'3,17,202,154,301'
p3606
aS'14,20,212,149,284'
p3607
aS'10,62,226,151,333'
p3608
aS'5,72,220,193,277'
p3609
aS'43,259,290,165,275'
p3610
aS'4,111,289,111,289'
p3611
aS'25,255,368,139,310'
p3612
aS'21,246,320,131,325'
p3613
aS'24,212,362,164,330'
p3614
aS'44,235,355,187,321'
p3615
aa(lp3616
S'48,160,289,160,289'
p3617
aS'2,168,294,168,294'
p3618
aS'50,168,291,168,291'
p3619
aS'12,122,278,122,278'
p3620
aS'58,128,275,128,275'
p3621
aS'16,124,269,124,269'
p3622
aS'15,133,274,133,274'
p3623
aS'56,133,274,133,274'
p3624
aS'46,141,299,141,299'
p3625
aS'30,133,288,133,288'
p3626
aS'26,167,302,167,302'
p3627
aS'29,162,307,162,307'
p3628
aS'54,177,300,177,300'
p3629
aS'17,165,293,165,293'
p3630
aassg652
(lp3631
(g654
(g658
S'+\xb9*\xa2\xf4b\xb3\xbf'
p3632
tp3633
Rp3634
g654
(g658
S'&I\xe5{\x19\x18\xa5\xbf'
p3635
tp3636
Rp3637
tp3638
a(g654
(g658
S'\xdf\x0fy\x98\xe6h\xac?'
p3639
tp3640
Rp3641
g654
(g658
S'\x9br\xeedC\xf1\xab\xbf'
p3642
tp3643
Rp3644
tp3645
a(g654
(g658
S'\xe8\xa9,E\xa0\x14\xa0\xbf'
p3646
tp3647
Rp3648
g654
(g658
S'GMu\xda\x815\xac?'
p3649
tp3650
Rp3651
tp3652
a(g654
(g658
S'\x9e\xaawDP\xa3\xb6?'
p3653
tp3654
Rp3655
g654
(g658
S'\xb8X\xd9\x13\x9c\x16\x9d?'
p3656
tp3657
Rp3658
tp3659
asg752
(lp3660
g654
(g658
S'\xe2\xe9\xd7\xfb\xb3C\xed?'
p3661
tp3662
Rp3663
ag654
(g658
S';\x9d\xd7bLy\xed?'
p3664
tp3665
Rp3666
ag654
(g658
S'\xc8\x83\n\xfd\x17\xe2\xed?'
p3667
tp3668
Rp3669
ag654
(g658
S'N\x06\x96v\xb57\xee?'
p3670
tp3671
Rp3672
ag654
(g658
S'\xb0\x0eR\xcb\xd8\xbd\xee?'
p3673
tp3674
Rp3675
asg796
(dp3676
g798
g799
sg800
g801
sg806
g807
sg808
(lp3677
(lp3678
asg811
g6
(S'\x00\x00\x00\x00\x00\x00'
p3679
tp3680
Rp3681
sg815
g816
ssg824
(lp3682
g826
a(lp3683
g832
ag833
ag839
ag829
ag863
aa(lp3684
g832
ag839
ag833
ag829
ag868
aa(lp3685
g839
ag833
ag832
ag829
ag836
aa(lp3686
g833
ag839
ag832
ag829
ag836
aasg847
(g654
(g658
S'AR\xccR"A\xb1\xbf'
p3687
tp3688
Rp3689
g654
(g658
S'\xda\xa4A\x8dK\xbc\xba\xbf'
p3690
tp3691
Rp3692
tp3693
sg855
g856
ssI10
(dp3694
g2
(lp3695
I0
aI0
aI0
aI0
aI0
aI0
aI0
aI0
aI0
aI0
asg4
(lp3696
(g6
(S'\x00\x08\x1a\x00\x00\x00'
p3697
tp3698
Rp3699
g10
((lp3700
g12
ag13
a(lp3701
F0.39853650968698195
aF0.5337632466097176
aF0.5431404524310224
aF0.8160626342878475
aF0.8866206885763338
aF0.1572644876108269
aF0.15569237766673338
aF0.14915618653717222
aF0.3169405331260914
aF0.38616721179120184
aF0.23247937544078945
aF0.461043277021042
aF0.9863533350623536
aF0.8647408554697703
aF0.8687099306461245
aF0.5160032044260854
aF0.6750592797242515
aF0.4933823008671977
aF0.07219704135213645
aF0.8721120234458052
aF0.5996604094906788
aF0.6000595391881108
aF0.09693403863622618
atp3702
tp3703
a(g6
(S'\x00\x08\x1b\x00\x00\x00'
p3704
tp3705
Rp3706
g20
(lp3707
F0.292456631048147
aF0.3279667621677571
aF0.4321658578745916
aF0.7542252430058495
aF0.5814725335015405
aF0.6789532882837981
aF0.9179985082188317
aF0.6477738526260257
aF0.817868655610984
aF0.17296091023999827
aF0.0497178215688141
aF0.13722217452090824
aF0.10892406565836266
aF0.4313663717550218
aF0.850504559731841
aF0.18943947061970745
aF0.5511065238878413
aF0.27888486529524514
aF0.3835279465538173
aF0.3277526255592642
aF0.23365981676648728
aF0.5544163141440446
aF0.3010137876145531
atp3708
a(g6
(S'\x00\x08\x1f\x00\x00\x00'
p3709
tp3710
Rp3711
g10
((lp3712
g12
ag13
a(lp3713
F0.824300379963281
aF0.964593866854237
aF0.40223714581138714
aF5.0842980947041205e-05
aF0.7901148493588517
aF0.43891482131602166
aF0.8755251508661764
aF0.12166080333395124
aF0.7103299236605546
aF0.9974172475949794
aF0.5164475458187794
aF0.8908670080659464
aF0.38034142559258266
aF0.6067134610163957
aF0.6791865681248607
aF0.2790237664120109
aF0.847968660563724
aF0.7236688047349475
aF0.5823101451686272
aF0.7186977959057285
aF0.0824078200416074
aF0.13863331064970352
aF0.0064318294630212325
atp3714
tp3715
a(g6
(S'\x00\x08 \x00\x00\x00'
p3716
tp3717
Rp3718
g20
(lp3719
F0.7232138220561486
aF0.35361634931115304
aF0.8741032231957404
aF0.04273338402058491
aF0.5246043395369093
aF0.532682700060968
aF0.520043750373724
aF0.2824706311420332
aF0.10658076238289316
aF0.19111947263565487
aF0.600599394174991
aF0.8256723006238089
aF0.04808786460763059
aF0.40755689523492467
aF0.7288300991480414
aF0.3690277050571845
aF0.4049211661909291
aF0.2535641586192302
aF0.3958709293803354
aF0.645547229253183
aF0.9621002905907284
aF0.6188508185153757
aF0.02527988885919119
atp3720
a(g6
(S'\x00\x08$\x00\x00\x00'
p3721
tp3722
Rp3723
g10
((lp3724
g12
ag13
a(lp3725
F0.16599838606338047
aF0.9044295612541474
aF0.0780977924668732
aF0.8385892744135283
aF0.030765314402540933
aF0.4317179604777017
aF0.04872979956852885
aF0.13547534082184953
aF0.08534864760377314
aF0.18199012388580715
aF0.6006933842351079
aF0.9974476372428706
aF0.0813695880769405
aF0.9160053737629654
aF0.6489184624655677
aF0.6484162843173209
aF0.6172647319083905
aF0.892953888431131
aF0.4427556537087499
aF0.3912217439886023
aF0.7790877792105784
aF0.739882651856796
aF0.7121657181470769
atp3726
tp3727
a(g6
(S'\x00\x08%\x00\x00\x00'
p3728
tp3729
Rp3730
g20
(lp3731
F0.08469416095114557
aF0.1698026876310722
aF0.9725568368154355
aF0.031669586226725666
aF0.48353477680120693
aF0.8334979714239668
aF0.5572547916567954
aF0.8384684092182523
aF0.9938114134838819
aF0.03279823572769891
aF0.6279367309206058
aF0.7763967888625556
aF0.6337545974477254
aF0.17203024293668656
aF0.528081364556456
aF0.7995384569212513
aF0.9308191573311559
aF0.7650600820320694
aF0.5319020055033173
aF0.976984608800223
aF0.35891664414168634
aF0.9749886557676941
aF0.6622541865668506
atp3732
a(g6
(S'\x00\x08)\x00\x00\x00'
p3733
tp3734
Rp3735
g10
((lp3736
g12
ag13
a(lp3737
F0.7808822849438664
aF0.19117734995823576
aF0.8280792656704792
aF0.003879725227776687
aF0.9232159582876536
aF0.8025394088976372
aF0.4742814858590092
aF0.46077398300066175
aF0.2582071787774203
aF0.7676436222245844
aF0.797608733000686
aF0.5060953389831969
aF0.8879589813097843
aF0.2371491595412588
aF0.4116884902693708
aF0.7678734538010767
aF0.5805185548882983
aF0.5303996102484482
aF0.14017749741714225
aF0.35254649106528513
aF0.7418533103412976
aF0.5431396820964638
aF0.9829514354735797
atp3738
tp3739
a(g6
(S'\x00\x08*\x00\x00\x00'
p3740
tp3741
Rp3742
g20
(lp3743
F0.0657936320780621
aF0.6958734191308578
aF0.2656047855930511
aF0.9482760017245018
aF0.2941333686983607
aF0.722859428929454
aF0.16401594839500233
aF0.27433969416694715
aF0.21759934461780628
aF0.23368689429163114
aF0.9578174818928833
aF0.2551142860817689
aF0.2785347451772623
aF0.6984394761344624
aF0.9175173796420265
aF0.8784646775889914
aF0.038478349345878016
aF0.5679868463759635
aF0.49523047101857587
aF0.8385789919892381
aF0.12144042052903659
aF0.46127324140559767
aF0.8639229058849354
atp3744
a(g6
(S'\x00\x08.\x00\x00\x00'
p3745
tp3746
Rp3747
g10
((lp3748
g12
ag13
a(lp3749
F0.4600536655067514
aF0.3108420519888474
aF0.8085337261453567
aF0.14463585258443523
aF0.793120847017553
aF0.21629962063649177
aF0.46137202209258976
aF0.2604187814655563
aF0.8162528792011675
aF0.6119441268660422
aF0.5807961224331868
aF0.6344071172941261
aF0.8248817092896318
aF0.4358780735555362
aF0.14272519312106702
aF0.12165867573308098
aF0.1855975086700581
aF0.9712765501573426
aF0.4491008896934856
aF0.04937487109893757
aF0.2230980754176859
aF0.18644498303606372
aF0.41929993421994805
atp3750
tp3751
a(g6
(S'\x00\x08/\x00\x00\x00'
p3752
tp3753
Rp3754
g20
(lp3755
F0.3450035134650533
aF0.7163404185261252
aF0.5281838492440822
aF0.3114366938716886
aF0.15647836745023536
aF0.18384335385113848
aF0.9319855076362674
aF0.43545307307006853
aF0.6795274181815513
aF0.05746191545620527
aF0.15907490117267942
aF0.27117462527356595
aF0.6371087553707603
aF0.3301603827340709
aF0.5983071579826258
aF0.6937282219390233
aF0.7952001037329548
aF0.9375967262283789
aF0.2347153149719372
aF0.7623573865321439
aF0.029675925971183847
aF0.5150854610766677
aF0.6448243772770221
atp3756
a(g6
(S'\x00\x083\x00\x00\x00'
p3757
tp3758
Rp3759
g10
((lp3760
g12
ag13
a(lp3761
F0.9993840669005204
aF0.15002433324913855
aF0.8186147514794937
aF0.11394669762096576
aF0.42746190817495444
aF0.9547308507964479
aF0.9142057705043413
aF0.6267106633188197
aF0.39675567578310145
aF0.6481462810480295
aF0.67295730255615
aF0.48776712818956425
aF0.28967991763181056
aF0.41248390653449885
aF0.019842513604478085
aF0.3820587576946519
aF0.5611989691222405
aF0.7143005113560218
aF0.2599646429467085
aF0.3376566879241313
aF0.14646404839517113
aF0.6550778694256267
aF0.5131975316330099
atp3762
tp3763
a(g6
(S'\x00\x084\x00\x00\x00'
p3764
tp3765
Rp3766
g20
(lp3767
F0.05798546150083028
aF0.6248973487580406
aF0.04282712761864027
aF0.7372730578596567
aF0.26406673601716457
aF0.2413142138065284
aF0.10998292611016569
aF0.19338546733637985
aF0.2964010422019059
aF0.19609118663917469
aF0.469840096313187
aF0.4004070767940928
aF0.4785564841988349
aF0.7538208758167925
aF0.5928293406094669
aF0.16307568856975985
aF0.3239076549941222
aF0.6299235615902994
aF0.7514315152376854
aF0.5551625205669358
aF0.9456277510646678
aF0.1936157144381352
aF0.4521413525957353
atp3768
a(g6
(S'\x00\x088\x00\x00\x00'
p3769
tp3770
Rp3771
g10
((lp3772
g12
ag13
a(lp3773
F0.21886212767068358
aF0.8448885774838493
aF0.6839276352495292
aF0.6564984267496976
aF0.6891706341027368
aF0.869245825292048
aF0.947207526436418
aF0.35465602823317643
aF0.9519548188463447
aF0.8949501391501519
aF0.7872388020376805
aF0.13280245005398195
aF0.6198729918544872
aF0.27484565040143105
aF0.5192251275599817
aF0.5955179167161012
aF0.9219261103405273
aF0.6859209829408187
aF0.6225019373714202
aF0.9569780221076805
aF0.4904198550573826
aF0.2638689374926372
aF0.9975747946091701
atp3774
tp3775
a(g6
(S'\x00\x089\x00\x00\x00'
p3776
tp3777
Rp3778
g20
(lp3779
F0.5727280993947031
aF0.24701561109076176
aF0.6692601548218065
aF0.973484911193309
aF0.5544248643980991
aF0.4854741100023512
aF0.10599143062368488
aF0.7894920786365602
aF0.8775809609935983
aF0.17041819727379415
aF0.8500588357434411
aF0.8411299919414549
aF0.9141146409246227
aF0.3099701255790027
aF0.2529501569527255
aF0.1674421139018234
aF0.8194950985018482
aF0.00034070873469027596
aF0.4251975347067727
aF0.881516595311367
aF0.6837245920353509
aF0.8005922560784167
aF0.4577516551293891
atp3780
a(g6
(S'\x00\t\x01\x00\x00\x00'
p3781
tp3782
Rp3783
g10
((lp3784
g12
ag13
a(lp3785
F0.28666378793988845
aF0.08087661307588134
aF0.5983078697472722
aF0.1890968255119383
aF0.0904928061026049
aF0.8323308560039718
aF0.240991652669445
aF0.5135227498306152
aF0.1729406101768145
aF0.6390418566074403
aF0.10449692902698648
aF0.5928832594350559
aF0.11417033959137379
aF0.0038499791538432193
aF0.4955439545505095
aF0.6889368815785235
aF0.6253370200101216
aF0.7277648166215148
aF0.35206509407993625
aF0.579556326531117
aF0.7839466348957138
aF0.9130560684594762
aF0.7162916303554505
atp3786
tp3787
a(g6
(S'\x00\t\x02\x00\x00\x00'
p3788
tp3789
Rp3790
g20
(lp3791
F0.304548088606703
aF0.5064553349056341
aF0.02937696133566503
aF0.6016298473031315
aF0.6739310253551207
aF0.09456190263238462
aF0.9035177597621394
aF0.7691011678049339
aF0.553721649738616
aF0.8112786826569394
aF0.6855593379498837
aF0.788376764501167
aF0.1281766596865268
aF0.3138089143837185
aF0.5415278246781062
aF0.02705836884867663
aF0.2708870721943608
aF0.5184358452273627
aF0.6989216652382715
aF0.10682971326755952
aF0.7796089491803596
aF0.22648601585860084
aF0.9322564384869735
atp3792
a(g6
(S'\x00\t\x06\x00\x00\x00'
p3793
tp3794
Rp3795
g10
((lp3796
g12
ag13
a(lp3797
F0.8684085601042231
aF0.6992141933808663
aF0.9704550600434431
aF0.5056178488687738
aF0.7312852740771232
aF0.18318187916851203
aF0.44825426202728846
aF0.6962652503191366
aF0.3382889401043109
aF0.30313303910756617
aF0.823213521816184
aF0.919591743930136
aF0.19087895793836573
aF0.42797542896939433
aF0.4367335168464155
aF0.6929485098599888
aF0.7951557941098577
aF0.9270994524777503
aF0.49809758660051084
aF0.38602321778502613
aF0.6287746020583652
aF0.9061662389430059
aF0.2913319427634937
atp3798
tp3799
a(g6
(S'\x00\t\x07\x00\x00\x00'
p3800
tp3801
Rp3802
g20
(lp3803
F0.4028619451433545
aF0.5988028867368996
aF0.43389336675171963
aF0.42460210504820584
aF0.6874610941567284
aF0.42085890902917633
aF0.2874351716695458
aF0.5210749674442043
aF0.10266894962000916
aF0.4931700013625502
aF0.8861865159176757
aF0.23056894937246364
aF0.3398312221106625
aF0.8569839791882158
aF0.15748045384849352
aF0.3338784704689268
aF0.00793915538295209
aF0.849550449685983
aF0.5863716666445156
aF0.6703288817353699
aF0.8094202082540974
aF0.7272045976570906
aF0.3001846409282315
atp3804
a(g6
(S'\x00\t\x0b\x00\x00\x00'
p3805
tp3806
Rp3807
g10
((lp3808
g12
ag13
a(lp3809
F0.7483070099983805
aF0.40222531243361026
aF0.7393801205218923
aF0.032949657020363676
aF0.13072677559454837
aF0.8664857020002686
aF0.3328553585748023
aF0.28949220701834844
aF0.5044334640595898
aF0.2738185442006156
aF0.5921429758686366
aF0.38759909977901785
aF0.688359027685145
aF0.3836021305644989
aF0.5217040476863033
aF0.6659637305769456
aF0.6489913162201215
aF0.22092110796724485
aF0.8958078413148266
aF0.847933847465215
aF0.7452253883082375
aF0.06611154887353565
aF0.3178748854781005
atp3810
tp3811
a(g6
(S'\x00\t\x0c\x00\x00\x00'
p3812
tp3813
Rp3814
g20
(lp3815
F0.674187017091715
aF0.4106374678589517
aF0.03221392176089455
aF0.2712735821999158
aF0.5426009524019025
aF0.4741799354804642
aF0.23556475528442777
aF0.34988685974287137
aF0.4334798879368287
aF0.3097020611389135
aF0.7753717930334619
aF0.12529563751031392
aF0.3190514610528675
aF0.9374607205337027
aF0.39878481981443703
aF0.538917235961427
aF0.4692293494309496
aF0.021329651262904537
aF0.2574211612889503
aF0.6214017626367709
aF0.6927045216613177
aF0.4753972777240796
aF0.673972023381111
atp3816
asg167
(dp3817
I1
(lp3818
(lp3819
S'115,157,176,158,176'
p3820
aS'121,174,167,168,170'
p3821
aS'129,210,190,211,194'
p3822
aS'113,174,226,176,221'
p3823
aS'123,164,182,164,182'
p3824
aS'72,154,191,154,191'
p3825
aS'59,267,41,267,41'
p3826
aS'107,178,376,178,376'
p3827
aS'100,150,157,150,157'
p3828
aS'126,176,240,176,240'
p3829
aa(lp3830
S'121,171,165,166,168'
p3831
aS'126,173,237,176,240'
p3832
aS'72,154,191,154,191'
p3833
aS'59,267,41,267,41'
p3834
aS'129,211,194,211,194'
p3835
aS'113,176,221,176,221'
p3836
aS'101,180,232,180,232'
p3837
aS'86,189,247,189,247'
p3838
aS'62,155,233,155,233'
p3839
aS'108,157,236,157,236'
p3840
aS'87,156,229,156,229'
p3841
aS'75,206,240,206,240'
p3842
aS'64,194,253,194,253'
p3843
aS'68,205,253,205,253'
p3844
aS'89,157,289,157,289'
p3845
aS'78,134,243,134,243'
p3846
aasI2
(lp3847
(lp3848
S'59,268,35,205,173'
p3849
aS'121,138,10,188,172'
p3850
aS'119,159,360,167,256'
p3851
aS'95,120,80,149,255'
p3852
aS'79,124,343,135,317'
p3853
aS'107,182,278,182,278'
p3854
aS'114,177,298,177,298'
p3855
aS'111,170,307,170,307'
p3856
aS'103,167,315,167,315'
p3857
aS'106,165,310,165,310'
p3858
aS'96,167,297,167,297'
p3859
aS'76,155,299,155,299'
p3860
aS'82,158,300,158,300'
p3861
aS'89,158,287,158,287'
p3862
aS'116,142,285,142,285'
p3863
aS'125,134,293,134,293'
p3864
aS'102,134,307,134,307'
p3865
aS'67,129,307,129,307'
p3866
aS'117,131,283,131,283'
p3867
aS'70,195,351,195,351'
p3868
aS'3,17,10,17,10'
p3869
aa(lp3870
S'88,182,369,183,259'
p3871
aS'107,179,376,182,278'
p3872
aS'118,299,114,197,222'
p3873
aS'69,125,116,158,209'
p3874
aS'66,73,126,144,216'
p3875
aS'73,77,129,177,211'
p3876
aS'110,123,139,160,140'
p3877
aS'124,110,149,172,150'
p3878
aS'71,108,175,170,163'
p3879
aS'98,85,177,146,171'
p3880
aS'3,19,12,17,10'
p3881
aS'119,167,256,167,256'
p3882
aasI3
(lp3883
(lp3884
S'55,50,288,50,288'
p3885
aS'35,58,281,58,281'
p3886
aS'44,70,320,70,320'
p3887
aS'9,26,242,26,242'
p3888
aS'22,29,235,29,235'
p3889
aa(lp3890
S'14,16,50,16,221'
p3891
aS'3,13,10,29,203'
p3892
aS'10,82,88,47,196'
p3893
aS'57,96,164,15,250'
p3894
aS'45,120,157,25,258'
p3895
aS'34,132,210,36,262'
p3896
aS'21,133,206,55,262'
p3897
aS'33,110,121,43,247'
p3898
aasI4
(lp3899
(lp3900
S'16,61,163,61,163'
p3901
aS'19,62,155,62,155'
p3902
aS'29,65,170,65,170'
p3903
aS'30,51,172,51,172'
p3904
aS'1,62,173,62,173'
p3905
aS'15,70,158,70,158'
p3906
aS'48,69,154,69,154'
p3907
aS'17,78,149,78,149'
p3908
aS'54,67,144,67,144'
p3909
aS'23,80,131,80,131'
p3910
aS'26,76,140,76,140'
p3911
aa(lp3912
S'3,10,376,35,226'
p3913
aS'14,12,340,13,217'
p3914
aS'10,49,280,21,233'
p3915
aS'33,88,238,18,182'
p3916
aS'57,78,204,28,213'
p3917
aS'45,105,225,65,221'
p3918
aasI5
(lp3919
(lp3920
S'15,61,171,61,171'
p3921
aS'29,58,177,58,177'
p3922
aS'1,57,168,57,168'
p3923
aS'19,58,166,58,166'
p3924
aS'17,75,163,75,163'
p3925
aS'54,61,160,61,160'
p3926
aS'16,60,183,60,183'
p3927
aS'40,51,180,51,180'
p3928
aa(lp3929
S'14,17,342,38,176'
p3930
aS'3,17,376,43,164'
p3931
aS'18,33,318,49,148'
p3932
aasI6
(lp3933
(lp3934
S'101,138,65,138,65'
p3935
aS'113,153,61,153,61'
p3936
aS'82,129,54,129,54'
p3937
aS'128,132,91,132,91'
p3938
aS'126,122,90,122,90'
p3939
aS'78,124,98,124,98'
p3940
aa(lp3941
S'71,53,198,145,91'
p3942
aS'98,55,168,140,76'
p3943
aS'73,34,223,126,81'
p3944
aS'54,46,182,21,185'
p3945
aS'19,45,192,22,198'
p3946
aS'66,50,188,143,100'
p3947
aS'23,48,134,161,97'
p3948
aS'74,55,118,151,79'
p3949
aS'121,105,261,150,110'
p3950
aS'63,48,132,48,132'
p3951
aasI7
(lp3952
(lp3953
S'87,90,43,86,46'
p3954
aS'101,101,58,101,58'
p3955
aS'108,95,51,95,51'
p3956
aS'106,86,45,86,45'
p3957
aS'111,93,44,93,44'
p3958
aS'89,83,43,83,43'
p3959
aS'116,78,42,78,42'
p3960
aS'117,78,45,78,45'
p3961
aS'82,97,39,97,39'
p3962
aS'114,95,43,95,43'
p3963
aS'125,85,56,85,56'
p3964
aS'119,109,34,109,34'
p3965
aS'120,84,71,84,71'
p3966
aS'128,110,68,110,68'
p3967
aS'126,107,75,107,75'
p3968
aa(lp3969
S'123,166,166,120,92'
p3970
aS'66,47,175,85,26'
p3971
aS'73,23,190,104,21'
p3972
aS'71,46,191,107,43'
p3973
aS'83,239,115,105,52'
p3974
aS'118,230,106,97,67'
p3975
aS'121,104,162,114,66'
p3976
aasI8
(lp3977
(lp3978
S'11,85,222,85,222'
p3979
aS'15,82,221,82,221'
p3980
aS'53,90,229,90,229'
p3981
aS'50,71,225,71,225'
p3982
aS'12,74,214,74,214'
p3983
aS'30,72,215,72,215'
p3984
aS'7,50,230,50,230'
p3985
aS'47,51,237,51,237'
p3986
aS'54,59,203,59,203'
p3987
aS'55,57,205,57,205'
p3988
aa(lp3989
S'3,76,242,75,283'
p3990
aS'14,85,234,85,234'
p3991
aS'18,111,341,68,226'
p3992
aasI9
(lp3993
(lp3994
S'132,299,138,299,138'
p3995
aS'147,305,145,305,145'
p3996
aS'157,316,151,316,151'
p3997
aS'165,295,153,295,153'
p3998
aS'174,284,155,284,155'
p3999
aS'148,296,172,296,172'
p4000
aS'167,295,169,295,169'
p4001
aS'154,312,129,312,129'
p4002
aS'160,294,124,294,124'
p4003
aS'134,286,124,286,124'
p4004
aa(lp4005
S'158,308,195,308,195'
p4006
aS'159,313,285,320,158'
p4007
aS'139,206,70,290,141'
p4008
aS'143,214,98,280,144'
p4009
aS'141,207,116,299,128'
p4010
aS'145,255,93,289,146'
p4011
aS'140,235,85,320,141'
p4012
aasI10
(lp4013
(lp4014
S'54,62,166,62,166'
p4015
aS'19,51,167,51,167'
p4016
aS'55,55,168,55,168'
p4017
aS'40,52,174,52,174'
p4018
aS'2,63,173,63,173'
p4019
aS'50,62,179,62,179'
p4020
aS'28,44,187,44,187'
p4021
aS'15,72,188,72,188'
p4022
aS'30,65,187,65,187'
p4023
aa(lp4024
S'25,76,84,52,190'
p4025
aS'37,98,91,60,199'
p4026
aS'36,93,99,56,178'
p4027
aS'43,107,111,56,181'
p4028
aS'21,64,117,65,193'
p4029
aS'23,45,117,55,188'
p4030
aS'44,52,115,65,192'
p4031
aS'32,82,115,64,192'
p4032
aS'27,90,125,66,184'
p4033
aS'4,88,106,65,181'
p4034
aS'38,94,103,94,103'
p4035
aassg652
(lp4036
(g654
(g658
S'X\xb7\xd0\xeed\xa1\xb1\xbf'
p4037
tp4038
Rp4039
g654
(g658
S'\xa4\xb3\xde\x9dcm\xba\xbf'
p4040
tp4041
Rp4042
tp4043
a(g654
(g658
S'\xbdo\xfa\xa4\xb8\xf4\xb0\xbf'
p4044
tp4045
Rp4046
g654
(g658
S'\xfc\xebB\x83\xfc\xef\xb3\xbf'
p4047
tp4048
Rp4049
tp4050
a(g654
(g658
S'\xf7la3\x80\x91\x9e\xbf'
p4051
tp4052
Rp4053
g654
(g658
S'\xd1\xbe\x19\xfa\x08\x8c\xb0\xbf'
p4054
tp4055
Rp4056
tp4057
a(g654
(g658
S'z\xde\xe5\x057\xde\x96\xbf'
p4058
tp4059
Rp4060
g654
(g658
S'\x99C\x9d-\xc2-\xae\xbf'
p4061
tp4062
Rp4063
tp4064
a(g654
(g658
S'\xcf@\x8c\x87\x0fD\xa7\xbf'
p4065
tp4066
Rp4067
g654
(g658
S'\x84\xe3\x0c\xd8\xa2+\x9d\xbf'
p4068
tp4069
Rp4070
tp4071
a(g654
(g658
S'\x0b\xe5S\xb1"U\xa3\xbf'
p4072
tp4073
Rp4074
g654
(g658
S'\xdf\x1f\x05\x189\xe4\x96?'
p4075
tp4076
Rp4077
tp4078
a(g654
(g658
S'\xeet\x1e\r\x10\xae\x99?'
p4079
tp4080
Rp4081
g654
(g658
S'C\xbd\x8d\xafu5\xb2?'
p4082
tp4083
Rp4084
tp4085
a(g654
(g658
S'\x0f\xb8\xc7! 1\x85\xbf'
p4086
tp4087
Rp4088
g654
(g658
S'\xd4\x87\x0f\xf4\x04j\xa5?'
p4089
tp4090
Rp4091
tp4092
a(g654
(g658
S'q\xe4\xea\xda7M\xa1?'
p4093
tp4094
Rp4095
g654
(g658
S'\x85\xbdY\x0f\x8b\xc6\xaa?'
p4096
tp4097
Rp4098
tp4099
a(g654
(g658
S'3Q\xd8\xa1\xd4\xcd\xb3?'
p4100
tp4101
Rp4102
g654
(g658
S'j\x91\xcaOf0\xb2?'
p4103
tp4104
Rp4105
tp4106
asg752
(lp4107
g654
(g658
S'\xe2\xe9\xd7\xfb\xb3C\xed?'
p4108
tp4109
Rp4110
ag654
(g658
S'\xe2\xe9\xd7\xfb\xb3C\xed?'
p4111
tp4112
Rp4113
ag654
(g658
S'\xc5"f\xdf\xec\xd1\xed?'
p4114
tp4115
Rp4116
ag654
(g658
S'~\xd8$\x8c\xbdZ\xee?'
p4117
tp4118
Rp4119
ag654
(g658
S'EM;_\x17\xa7\xed?'
p4120
tp4121
Rp4122
ag654
(g658
S'\xf5R\x96\x0f\x1d\x02\xee?'
p4123
tp4124
Rp4125
ag654
(g658
S'b\x11\xb3o\xf6\xe8\xee?'
p4126
tp4127
Rp4128
ag654
(g658
S'b\x11\xb3o\xf6\xe8\xee?'
p4129
tp4130
Rp4131
ag654
(g658
S'\x9d\x00;\xc6\xaf\xdc\xed?'
p4132
tp4133
Rp4134
ag654
(g658
S'\xe5>\x8b\xf2#\xc1\xee?'
p4135
tp4136
Rp4137
ag654
(g658
S'\x8a\x8e\x85\x97s\xbb\xee?'
p4138
tp4139
Rp4140
asg796
(dp4141
g798
g799
sg800
g801
sg806
g807
sg808
(lp4142
(lp4143
asg811
g6
(S'\x00\x00\x00\x00\x00\x00'
p4144
tp4145
Rp4146
sg815
g816
ssg824
(lp4147
g826
a(lp4148
g861
ag863
ag864
ag865
ag833
aa(lp4149
g833
ag839
ag832
ag867
ag829
aa(lp4150
g833
ag832
ag839
ag829
ag836
aa(lp4151
g833
ag832
ag829
ag836
ag839
aa(lp4152
g833
ag836
ag832
ag829
ag830
aa(lp4153
g833
ag832
ag836
ag802
ag829
aa(lp4154
g832
ag836
ag833
ag829
ag858
aa(lp4155
g832
ag833
ag836
ag829
ag857
aa(lp4156
g833
ag836
ag829
ag832
ag857
aa(lp4157
g833
ag836
ag829
ag832
ag857
aasg847
(g654
(g658
S'\xeaJ\xccR"A\xb1\xbf'
p4158
tp4159
Rp4160
g654
(g658
S'\x06\xaaA\x8dK\xbc\xba\xbf'
p4161
tp4162
Rp4163
tp4164
sg855
g856
ssI11
(dp4165
g2
(lp4166
I0
aI0
aI1
aI0
aI1
aI0
aI0
aI0
aI0
asg4
(lp4167
(g6
(S'\x00\x08\x1a\x00\x00\x00'
p4168
tp4169
Rp4170
g10
((lp4171
g12
ag13
a(lp4172
F0.14971468350543415
aF0.0689494899972466
aF0.46240975962857866
aF0.7711033032350342
aF0.1367589759239427
aF0.5276549798337462
aF0.6200936939369311
aF0.9358397459606617
aF0.8870050014240589
aF0.7431822392642141
aF0.6113924361635328
aF0.4864521429396562
aF0.15247732819418036
aF0.5204621731868664
aF0.01773869830158159
aF0.7071689042539616
aF0.2781712886021225
aF0.9350030822458745
aF0.6433927246526613
aF0.22813128898162505
aF0.7384551838095801
aF0.004011592707155676
aF0.6217257430329765
atp4173
tp4174
a(g6
(S'\x00\x08\x1b\x00\x00\x00'
p4175
tp4176
Rp4177
g20
(lp4178
F0.979898320613384
aF0.02970470113517143
aF0.7443700006757862
aF0.46999393380094234
aF0.6023049187871194
aF0.949628183812049
aF0.34673734781753074
aF0.8683223031516968
aF0.7788814429387335
aF0.6192701028962873
aF0.4553588444851622
aF0.3199067027457343
aF0.7884460628374468
aF0.06827130551140159
aF0.1419646679176475
aF0.1418135051064876
aF0.5538767065700335
aF0.5166870805814368
aF0.28117041979780055
aF0.6141256647565096
aF0.12817679651323577
aF0.6884931563053686
aF0.9785011606632567
atp4179
a(g6
(S'\x00\x08\x1f\x00\x00\x00'
p4180
tp4181
Rp4182
g10
((lp4183
g12
ag13
a(lp4184
F0.8638804157213702
aF0.061517126123371124
aF0.6371835037478355
aF0.22520731964069884
aF0.30252636328860694
aF0.09973990797245691
aF0.7020931975036674
aF0.25217546521295275
aF0.5141347288468532
aF0.4868671892089296
aF0.32369123032835945
aF0.7134623488586903
aF0.39702536243307907
aF0.7525356997700353
aF0.6420859763572145
aF0.45442687602049003
aF0.7994576999165419
aF0.5222160904218385
aF0.3593614459431881
aF0.42411271964806485
aF0.2718166684097383
aF0.6452413260135886
aF0.8236718609486237
atp4185
tp4186
a(g6
(S'\x00\x08 \x00\x00\x00'
p4187
tp4188
Rp4189
g20
(lp4190
F0.783326301558414
aF0.019042818673147055
aF0.3942338466295684
aF0.9234870297286397
aF0.8364421452426805
aF0.8937021011312118
aF0.17309316487853377
aF0.5453068009245108
aF0.5117072213280788
aF0.4325286933501131
aF0.5910473090116026
aF0.5304957593939145
aF0.6060823861939817
aF0.4993181840607481
aF0.5702925455808533
aF0.015487300553602479
aF0.832684760248422
aF0.5155436308446182
aF0.7178966241806994
aF0.6760159243216363
aF0.848142027632916
aF0.7648005499855003
aF0.5029399774033955
atp4191
a(g6
(S'\x00\x08$\x00\x00\x00'
p4192
tp4193
Rp4194
g10
((lp4195
g12
ag13
a(lp4196
F0.35547972776373327
aF0.8588320838138457
aF0.9373303112821705
aF0.6365206071247766
aF0.6191375471564492
aF0.26705508270592315
aF0.8940735468885049
aF0.2067692444004975
aF0.936962793198426
aF0.9002062235823075
aF0.749858901812659
aF0.36224146675021784
aF0.18939377429654292
aF0.6450773361997152
aF0.3845833012595752
aF0.9392809041737431
aF0.301375000122881
aF0.3645723969134247
aF0.3588564298293073
aF0.9418440238113069
aF0.06140658444983593
aF0.33867650867184806
aF0.07977422658855149
atp4197
tp4198
a(g6
(S'\x00\x08%\x00\x00\x00'
p4199
tp4200
Rp4201
g20
(lp4202
F0.9646119816174358
aF0.8857421992196127
aF0.024530644457432693
aF0.02808596844054978
aF0.4346576514811352
aF0.9594952498564522
aF0.9982921718737698
aF0.5689990124680858
aF0.5071497670892778
aF0.8191107723572705
aF0.7196122385127891
aF0.2872083483368977
aF0.8378645212364448
aF0.2534975616193875
aF0.667917237123166
aF0.039172296620841984
aF0.9661427242536209
aF0.45011030647184536
aF0.5325963565938009
aF0.515018565167825
aF0.3624929831596502
aF0.39002651752795403
aF0.8826733369041522
atp4203
a(g6
(S'\x00\x08)\x00\x00\x00'
p4204
tp4205
Rp4206
g10
((lp4207
g12
ag13
a(lp4208
F0.9410447232727301
aF0.601130924483118
aF0.1697682293318873
aF0.7256622776858103
aF0.14458084040489583
aF0.45437710373041273
aF0.1813051951429132
aF0.7993663167493527
aF0.7783609790761709
aF0.4092501818532762
aF0.855480122317903
aF0.5309182990147249
aF0.8639152699254063
aF0.8746827409475774
aF0.9976058269892605
aF0.2885716910350601
aF0.6156495372069355
aF0.9608316565051941
aF0.9611500847921055
aF0.7054024835654373
aF0.5006866124298072
aF0.5160887201362645
aF0.6089262811447776
atp4209
tp4210
a(g6
(S'\x00\x08*\x00\x00\x00'
p4211
tp4212
Rp4213
g20
(lp4214
F0.7754970639079231
aF0.7655692757752179
aF0.27042160784823643
aF0.5480505748945759
aF0.014309073268727546
aF0.35115249788499936
aF0.8047822263059258
aF0.6515523951257524
aF0.9995589717160036
aF0.6977837433489646
aF0.04339047744828317
aF0.40746445307041224
aF0.6980505195518347
aF0.9992806469846565
aF0.5434338702711596
aF0.5955744662481649
aF0.16755405771481702
aF0.15021661727696956
aF0.25686001198969577
aF0.9200636369534946
aF0.5864766505495029
aF0.32140952249303734
aF0.23455579016787942
atp4215
a(g6
(S'\x00\x08.\x00\x00\x00'
p4216
tp4217
Rp4218
g10
((lp4219
g12
ag13
a(lp4220
F0.4661509433583514
aF0.6680007343181686
aF0.35826781461499957
aF0.26403536642012837
aF0.8139982937758263
aF0.1982300166680956
aF0.1469016036471128
aF0.14888664133161345
aF0.8818193993404342
aF0.43254660732029393
aF0.990837261858224
aF0.38899190526110916
aF0.8802159704281679
aF0.5645323278853223
aF0.181429235389578
aF0.9658547812430772
aF0.31748914074449874
aF0.9261888925049074
aF0.051177806233861256
aF0.939621751268092
aF0.48932643027738165
aF0.5811563993986163
aF0.4676468386195244
atp4221
tp4222
a(g6
(S'\x00\x08/\x00\x00\x00'
p4223
tp4224
Rp4225
g20
(lp4226
F0.29337226611227496
aF0.1695562260819351
aF0.04350089760796472
aF0.37453465248733553
aF0.3319975275768897
aF0.9984451367786628
aF0.832003482565915
aF0.33212668062577344
aF0.31143537808626254
aF0.5821956594320364
aF0.40794979943288945
aF0.9670426724370504
aF0.6360336867064085
aF0.9121117948609078
aF0.9008188837914142
aF0.8225435006217579
aF0.24065686264384967
aF0.5912097710545245
aF0.5873256085323973
aF0.7937281424191871
aF0.6588287928443695
aF0.984531850400966
aF0.6022405994210512
atp4227
a(g6
(S'\x00\x083\x00\x00\x00'
p4228
tp4229
Rp4230
g10
((lp4231
g12
ag13
a(lp4232
F0.5485127735239639
aF0.48153429873305875
aF0.4636475337565563
aF0.23090233661136417
aF0.9340849701824596
aF0.0968122058375307
aF0.7743885622127246
aF0.34152661020063735
aF0.7858781467925755
aF0.5220797088251912
aF0.09083519990766209
aF0.49119382422051705
aF0.3537683261019978
aF0.8374181745242427
aF0.15560095244646321
aF0.7967757479013521
aF0.32329373214311696
aF0.0723316199728895
aF0.4621799290296217
aF0.12761955623578425
aF0.762771980156522
aF0.4199035304249429
aF0.43018182534720584
atp4233
tp4234
a(g6
(S'\x00\x084\x00\x00\x00'
p4235
tp4236
Rp4237
g20
(lp4238
F0.6548310464267775
aF0.8140130258579986
aF0.4042263779594635
aF0.5548589627174322
aF0.38970688961461464
aF0.7401766681377308
aF0.07543575264613289
aF0.036864558801369074
aF0.3618809449112199
aF0.809878625242771
aF0.757479928139747
aF0.015768363382379413
aF0.42019184712487423
aF0.9448584868393465
aF0.5381492803833929
aF0.12056639718495687
aF0.9190023667782132
aF0.3557673834413241
aF0.9190486768530368
aF0.5438979224759997
aF0.09369628820599363
aF0.2309609277421637
aF0.6912729612065596
atp4239
a(g6
(S'\x00\x088\x00\x00\x00'
p4240
tp4241
Rp4242
g10
((lp4243
g12
ag13
a(lp4244
F0.3717618166597313
aF0.19636822210083493
aF0.09430672649151128
aF0.11089217306207855
aF0.20697143593316492
aF0.7100179744784916
aF0.9924872899361498
aF0.8155473641376252
aF0.8880611803592513
aF0.9921837962108585
aF0.9215690177677343
aF0.8350871095890954
aF0.8909373909428566
aF0.527318168444606
aF0.23806530794350222
aF0.1519148112147085
aF0.10208999638365646
aF0.3390539691852841
aF0.07918301295532659
aF0.347959449470592
aF0.16227923667419397
aF0.1990424623889916
aF0.5492652797083306
atp4245
tp4246
a(g6
(S'\x00\x089\x00\x00\x00'
p4247
tp4248
Rp4249
g20
(lp4250
F0.6227816109088472
aF0.40907950795955095
aF0.41848183463313915
aF0.9947523444662535
aF0.5956297539326547
aF0.9768638593074974
aF0.24868923404126275
aF0.41093396848902675
aF0.5460718525451884
aF0.31144050530066403
aF0.5253641789265358
aF0.37184723449860935
aF0.45016683199013385
aF0.5600407579671086
aF0.008558692396332557
aF0.45172664585864897
aF0.9788835045668889
aF0.5574286438027507
aF0.9599702230814369
aF0.7510173362615182
aF0.4164806649979583
aF0.14040278810038864
aF0.5369195150637918
atp4251
a(g6
(S'\x00\t\x01\x00\x00\x00'
p4252
tp4253
Rp4254
g10
((lp4255
g12
ag13
a(lp4256
F0.711905828503317
aF0.6591572579420546
aF0.2565792051724445
aF0.5916550486485577
aF0.7590393397810885
aF0.22663046837658718
aF0.4049446064949145
aF0.006714562993956896
aF0.9346059151835269
aF0.6364562625597501
aF0.9327389916793783
aF0.4032757538254653
aF0.8017371983741789
aF0.25882686316210957
aF0.8758173810873525
aF0.8301927884111509
aF0.8556233304708223
aF0.631641642059069
aF0.11639332278025061
aF0.6856009437172734
aF0.45351605770540393
aF0.36857419941505676
aF0.05374949146310681
atp4257
tp4258
a(g6
(S'\x00\t\x02\x00\x00\x00'
p4259
tp4260
Rp4261
g20
(lp4262
F0.5356448103475918
aF0.9227971417526146
aF0.3449160117903949
aF0.4981540245390521
aF0.34657654329743903
aF0.794593001376425
aF0.668700997302283
aF0.44570727992828796
aF0.7372504632042113
aF0.6994189892940913
aF0.37702905151084554
aF0.4211833631506001
aF0.5543451480809508
aF0.6857787311027566
aF0.9076549633441526
aF0.5199987671941355
aF0.7354999371015833
aF0.9422374840152147
aF0.923931339001921
aF0.5592713629265108
aF0.5054623103517212
aF0.011830229725941277
aF0.44071992059731124
atp4263
a(g6
(S'\x00\t\x06\x00\x00\x00'
p4264
tp4265
Rp4266
g10
((lp4267
g12
ag13
a(lp4268
F0.9515930517093019
aF0.41185869839568534
aF0.043707225933184546
aF0.14646762517933054
aF0.4561470252670936
aF0.19840959819584314
aF0.16681298191031824
aF0.23483700349505987
aF0.339212586649838
aF0.09320375124768299
aF0.84760765027272
aF0.2650596856323175
aF0.002752896696474161
aF0.38625648356527853
aF0.07703700140096947
aF0.45852747586881715
aF0.3666429327702142
aF0.6569308410883493
aF0.21218281044511378
aF0.3783532091125106
aF0.822217166573033
aF0.6719795985289793
aF0.185982403643576
atp4269
tp4270
a(g6
(S'\x00\t\x07\x00\x00\x00'
p4271
tp4272
Rp4273
g20
(lp4274
F0.875138239296017
aF0.658919180937444
aF0.23158359202804435
aF0.1324525136191309
aF0.2976833625627614
aF0.4188935751663728
aF0.9472271580192555
aF0.9236486367766946
aF0.09956215449992989
aF0.035471397086730416
aF0.5909859149182501
aF0.9582257063614407
aF0.20950192236742537
aF0.39998077569003565
aF0.5856672370616387
aF0.2320505680731334
aF0.7033175460943446
aF0.1827188054020742
aF0.4856758024109402
aF0.20961773747691537
aF0.3104369471696471
aF0.968038896973693
aF0.8855201067029201
atp4275
asg167
(dp4276
I1
(lp4277
(lp4278
S'66,67,121,157,209'
p4279
aS'98,77,168,151,201'
p4280
aS'109,91,209,150,185'
p4281
aS'36,94,237,157,236'
p4282
aS'81,96,239,160,242'
p4283
aS'74,64,207,153,247'
p4284
aS'63,63,244,156,249'
p4285
aS'73,69,125,167,162'
p4286
aS'124,99,142,166,144'
p4287
aS'71,97,168,162,170'
p4288
aS'121,123,10,148,165'
p4289
aS'59,240,39,160,184'
p4290
aS'118,269,112,147,194'
p4291
aS'90,224,247,160,193'
p4292
aS'92,227,223,125,204'
p4293
aS'83,242,206,153,204'
p4294
aa(lp4295
S'64,175,237,175,237'
p4296
aS'86,171,231,171,231'
p4297
aS'66,157,209,157,209'
p4298
aS'101,163,217,163,217'
p4299
aS'113,158,212,158,212'
p4300
aS'126,156,222,156,222'
p4301
aS'62,140,218,140,218'
p4302
aS'108,142,221,142,221'
p4303
aS'87,141,215,141,215'
p4304
aS'128,158,180,158,180'
p4305
aS'123,148,170,148,170'
p4306
aS'72,139,180,139,180'
p4307
aasI2
(lp4308
(lp4309
S'121,110,247,173,26'
p4310
aS'59,234,220,164,25'
p4311
aS'118,265,192,176,30'
p4312
aS'95,100,246,178,18'
p4313
aS'69,102,212,190,44'
p4314
aS'73,49,199,182,37'
p4315
aS'110,113,181,167,50'
p4316
aS'29,68,173,152,47'
p4317
aS'74,61,120,168,25'
p4318
aS'124,97,171,173,47'
p4319
aS'71,91,166,164,45'
p4320
aS'98,83,149,176,37'
p4321
aS'83,241,131,138,36'
p4322
aS'60,220,119,137,37'
p4323
aS'92,226,107,166,50'
p4324
aS'61,233,92,167,59'
p4325
aS'109,87,115,153,49'
p4326
aS'63,75,99,154,36'
p4327
aS'81,90,91,144,55'
p4328
aS'66,70,170,153,44'
p4329
aS'100,124,140,168,50'
p4330
aS'123,143,141,176,57'
p4331
aa(lp4332
S'150,257,258,257,258'
p4333
aS'151,272,252,272,252'
p4334
aS'171,316,229,316,229'
p4335
aS'146,328,218,328,218'
p4336
aS'155,301,214,301,214'
p4337
aS'147,298,198,298,198'
p4338
aS'0,10,206,10,206'
p4339
aS'42,25,234,25,234'
p4340
aS'52,40,258,40,258'
p4341
aS'10,56,287,56,287'
p4342
aS'56,43,227,43,227'
p4343
aS'51,35,211,35,211'
p4344
aS'58,48,211,48,211'
p4345
aS'18,38,293,38,293'
p4346
aS'173,306,266,306,266'
p4347
aasI3
(lp4348
(lp4349
S'121,110,247,110,247'
p4350
aS'95,100,246,100,246'
p4351
aS'69,102,212,102,212'
p4352
aS'73,49,199,49,199'
p4353
aS'110,113,181,113,181'
p4354
aS'124,97,171,97,171'
p4355
aS'29,68,173,68,173'
p4356
aS'66,70,170,70,170'
p4357
aS'71,91,166,91,166'
p4358
aS'98,83,149,83,149'
p4359
aS'74,61,120,61,120'
p4360
aS'63,75,99,75,99'
p4361
aS'109,87,115,87,115'
p4362
aS'81,90,91,90,91'
p4363
aS'100,124,140,124,140'
p4364
aS'84,103,117,103,117'
p4365
aS'104,105,84,105,84'
p4366
aS'115,144,139,144,139'
p4367
aS'123,143,141,143,141'
p4368
aS'78,125,121,125,121'
p4369
aS'80,122,116,122,116'
p4370
aS'65,119,109,119,109'
p4371
aS'85,111,101,111,101'
p4372
aS'99,112,104,112,104'
p4373
aS'120,117,116,117,116'
p4374
aS'94,110,112,110,112'
p4375
aS'72,140,126,140,126'
p4376
aa(lp4377
S'107,171,10,171,10'
p4378
aS'88,165,13,165,13'
p4379
aS'119,142,23,142,23'
p4380
aS'70,183,45,183,45'
p4381
aS'103,160,39,160,39'
p4382
aS'111,154,52,154,52'
p4383
aS'114,156,54,156,54'
p4384
aS'82,140,44,140,44'
p4385
aS'106,143,43,143,43'
p4386
aasI4
(lp4387
(lp4388
S'115,194,29,194,29'
p4389
aS'123,215,44,215,44'
p4390
aS'100,213,50,213,50'
p4391
aS'72,140,126,184,52'
p4392
aS'43,116,121,170,48'
p4393
aS'94,110,112,152,63'
p4394
aS'85,111,101,160,55'
p4395
aS'99,112,104,144,72'
p4396
aS'104,105,84,141,32'
p4397
aS'63,75,99,184,35'
p4398
aS'81,90,91,157,27'
p4399
aS'27,87,113,149,30'
p4400
aS'74,61,120,153,26'
p4401
aS'84,103,117,126,25'
p4402
aS'65,119,109,123,31'
p4403
aS'78,125,121,169,56'
p4404
aS'110,113,181,154,64'
p4405
aS'69,102,212,180,52'
p4406
aS'121,110,247,181,65'
p4407
aS'95,100,246,163,44'
p4408
aS'73,49,199,129,42'
p4409
aS'66,70,170,196,56'
p4410
aS'124,97,171,126,26'
p4411
aS'71,91,166,148,31'
p4412
aS'98,83,149,139,27'
p4413
aS'80,122,116,122,116'
p4414
aS'120,117,116,117,116'
p4415
aS'109,87,115,87,115'
p4416
aa(lp4417
S'88,165,13,165,13'
p4418
aS'107,171,10,171,10'
p4419
aS'100,163,35,163,35'
p4420
aS'103,160,39,160,39'
p4421
aS'119,142,23,142,23'
p4422
aS'106,143,43,143,43'
p4423
aS'70,183,45,183,45'
p4424
aS'111,154,52,154,52'
p4425
aS'114,156,54,156,54'
p4426
aasI5
(lp4427
(lp4428
S'43,109,119,31,322'
p4429
aS'34,91,157,15,311'
p4430
aS'24,36,128,29,325'
p4431
aS'35,37,126,33,313'
p4432
aS'44,44,95,37,326'
p4433
aS'25,70,82,34,324'
p4434
aS'4,83,99,27,318'
p4435
aS'32,64,95,40,310'
p4436
aS'36,80,109,42,308'
p4437
aS'27,69,138,36,290'
p4438
aS'21,86,134,38,288'
p4439
aS'38,80,139,31,287'
p4440
aS'41,79,128,13,289'
p4441
aS'23,48,152,46,268'
p4442
aS'55,42,149,40,248'
p4443
aS'26,59,163,31,295'
p4444
aS'17,74,165,38,263'
p4445
aa(lp4446
S'14,45,334,45,334'
p4447
aS'18,60,330,60,330'
p4448
aS'10,59,289,59,289'
p4449
aS'3,44,352,44,352'
p4450
aS'52,52,260,52,260'
p4451
aS'42,30,240,30,240'
p4452
aS'5,72,263,72,263'
p4453
aasI6
(lp4454
(lp4455
S'38,72,132,60,224'
p4456
aS'27,69,133,56,223'
p4457
aS'43,101,131,32,236'
p4458
aS'25,63,97,60,247'
p4459
aS'41,76,130,66,229'
p4460
aS'4,76,109,70,236'
p4461
aS'36,73,115,65,228'
p4462
aS'32,60,106,61,225'
p4463
aS'44,39,120,52,223'
p4464
aS'21,71,151,58,233'
p4465
aS'34,79,151,52,236'
p4466
aS'55,46,168,50,228'
p4467
aS'17,81,171,64,214'
p4468
aS'26,55,160,59,211'
p4469
aS'35,33,151,46,212'
p4470
aS'24,27,160,54,229'
p4471
aS'23,37,157,44,222'
p4472
aS'37,71,95,71,95'
p4473
aa(lp4474
S'5,77,252,74,252'
p4475
aS'11,76,220,76,220'
p4476
aS'23,44,222,44,222'
p4477
aS'44,52,223,52,223'
p4478
aS'46,49,221,49,221'
p4479
aS'26,59,211,59,211'
p4480
aS'50,60,212,60,212'
p4481
aS'13,76,243,76,243'
p4482
aS'31,67,236,67,236'
p4483
aS'58,63,237,63,237'
p4484
aS'34,52,236,52,236'
p4485
aS'56,53,240,53,240'
p4486
aS'51,35,241,35,241'
p4487
aS'9,30,222,30,222'
p4488
aS'47,38,210,38,210'
p4489
aS'53,80,216,80,216'
p4490
aS'39,74,253,74,253'
p4491
aS'8,71,246,71,246'
p4492
aS'6,57,251,57,251'
p4493
aS'42,33,258,33,258'
p4494
aS'0,18,256,18,256'
p4495
aS'52,56,265,56,265'
p4496
aS'45,92,228,92,228'
p4497
aS'12,62,206,62,206'
p4498
aS'29,49,204,49,204'
p4499
aS'7,43,201,43,201'
p4500
aS'33,89,208,89,208'
p4501
aS'2,68,199,68,199'
p4502
aS'16,73,195,73,195'
p4503
aS'57,79,195,79,195'
p4504
aS'30,59,196,59,196'
p4505
aS'15,66,193,66,193'
p4506
aS'19,50,197,50,197'
p4507
aS'28,48,193,48,193'
p4508
aasI7
(lp4509
(lp4510
S'121,90,202,171,25'
p4511
aS'73,25,184,160,24'
p4512
aS'71,50,162,157,36'
p4513
aS'66,49,151,148,46'
p4514
aS'124,78,150,165,49'
p4515
aS'21,63,139,161,42'
p4516
aS'95,82,135,149,53'
p4517
aS'98,61,123,145,37'
p4518
aS'74,45,117,151,42'
p4519
aS'63,50,106,143,25'
p4520
aS'81,52,93,141,36'
p4521
aS'109,54,93,137,40'
p4522
aS'123,124,127,146,30'
p4523
aS'110,108,116,165,33'
p4524
aS'104,52,83,166,27'
p4525
aS'67,57,81,158,39'
p4526
aS'85,60,80,142,39'
p4527
aS'80,66,83,142,44'
p4528
aS'84,77,94,144,48'
p4529
aS'99,80,79,132,47'
p4530
aS'94,72,83,138,48'
p4531
aS'100,72,82,133,47'
p4532
aS'115,112,105,143,60'
p4533
aS'62,104,98,135,56'
p4534
aS'72,99,89,127,58'
p4535
aS'65,101,80,134,57'
p4536
aS'76,96,73,129,53'
p4537
aS'69,67,142,67,142'
p4538
aS'120,76,86,76,86'
p4539
aa(lp4540
S'92,184,50,184,50'
p4541
aS'70,167,39,167,39'
p4542
aS'124,165,49,165,49'
p4543
aS'127,163,47,163,47'
p4544
aS'129,156,56,156,56'
p4545
aS'112,158,60,158,60'
p4546
aS'73,160,24,160,24'
p4547
aS'90,158,24,158,24'
p4548
aS'77,148,26,148,26'
p4549
aS'91,141,32,141,32'
p4550
aS'74,151,42,151,42'
p4551
aS'75,147,40,147,40'
p4552
aS'98,145,37,145,37'
p4553
aS'62,135,56,135,56'
p4554
aS'64,137,52,137,52'
p4555
aS'65,134,57,134,57'
p4556
aS'105,140,56,140,56'
p4557
aS'72,127,58,127,58'
p4558
aS'96,129,58,129,58'
p4559
aS'94,138,48,138,48'
p4560
aS'99,132,47,132,47'
p4561
aS'100,133,47,133,47'
p4562
aS'113,133,44,133,44'
p4563
aS'86,130,42,130,42'
p4564
aS'107,135,17,135,17'
p4565
aS'103,122,20,122,20'
p4566
aS'88,115,10,115,10'
p4567
aS'122,126,71,126,71'
p4568
aS'126,110,70,110,70'
p4569
aS'128,108,53,108,53'
p4570
aassg652
(lp4571
(g654
(g658
S'\x1d)\xc0\xcb4\xd5\xa6\xbf'
p4572
tp4573
Rp4574
g654
(g658
S'(\xec#\xe0\xef\xad\xb0\xbf'
p4575
tp4576
Rp4577
tp4578
a(g654
(g658
S'e\x12\xe3\x1fv\xd0R?'
p4579
tp4580
Rp4581
g654
(g658
S'\xfe\x1eRt\xdcz\xca\xbf'
p4582
tp4583
Rp4584
tp4585
a(g654
(g658
S'\x1d)\xc0\xcb4\xd5\xa6\xbf'
p4586
tp4587
Rp4588
g654
(g658
S'(\xec#\xe0\xef\xad\xb0\xbf'
p4589
tp4590
Rp4591
tp4592
a(g654
(g658
S'\x1d)\xc0\xcb4\xd5\xa6\xbf'
p4593
tp4594
Rp4595
g654
(g658
S'(\xec#\xe0\xef\xad\xb0\xbf'
p4596
tp4597
Rp4598
tp4599
a(g654
(g658
S'\x1d)\xc0\xcb4\xd5\xa6\xbf'
p4600
tp4601
Rp4602
g654
(g658
S'(\xec#\xe0\xef\xad\xb0\xbf'
p4603
tp4604
Rp4605
tp4606
a(g654
(g658
S'\x0e\x00\xb6?wJ\x9a\xbf'
p4607
tp4608
Rp4609
g654
(g658
S'\xfb\x9ek!\xcau\x97\xbf'
p4610
tp4611
Rp4612
tp4613
a(g654
(g658
S'\xab\x7f\x9f\xdc\xc5;\x8c\xbf'
p4614
tp4615
Rp4616
g654
(g658
S'\n%\xe5B\xda\x9fi\xbf'
p4617
tp4618
Rp4619
tp4620
a(g654
(g658
S'*b\xc8\xder\xf8\x81?'
p4621
tp4622
Rp4623
g654
(g658
S'\xb46\xb4@\xaa\x93\x9d?'
p4624
tp4625
Rp4626
tp4627
a(g654
(g658
S'\xe6\x1c\xff\xeags\xa3?'
p4628
tp4629
Rp4630
g654
(g658
S'\xbc\xedIf\x9fn\xb6?'
p4631
tp4632
Rp4633
tp4634
asg752
(lp4635
g654
(g658
S'\xe2\xe9\xd7\xfb\xb3C\xed?'
p4636
tp4637
Rp4638
ag654
(g658
S'\xed\x9f8\x07j\xa4\xed?'
p4639
tp4640
Rp4641
ag654
(g658
S'\xb3o\xf6\xe8\x03\xce\xec?'
p4642
tp4643
Rp4644
ag654
(g658
S'\xed\x9f8\x07j\xa4\xed?'
p4645
tp4646
Rp4647
ag654
(g658
S'\xed\x9f8\x07j\xa4\xed?'
p4648
tp4649
Rp4650
ag654
(g658
S'\xed\x9f8\x07j\xa4\xed?'
p4651
tp4652
Rp4653
ag654
(g658
S'\xd0\xd8\xc6\xea\xa22\xee?'
p4654
tp4655
Rp4656
ag654
(g658
S'(\x86\xc9BP5\xee?'
p4657
tp4658
Rp4659
ag654
(g658
S'\xe5>\x8b\xf2#\xc1\xee?'
p4660
tp4661
Rp4662
ag654
(g658
S'\x95D\xe6\xa2)\x1c\xef?'
p4663
tp4664
Rp4665
asg796
(dp4666
g798
g799
sg800
g801
sg806
g807
sg808
(lp4667
(lp4668
asg811
g6
(S'\x00\x00\x00\x00\x00\x00'
p4669
tp4670
Rp4671
sg815
g816
ssg824
(lp4672
g826
a(lp4673
g832
ag839
ag836
ag833
ag828
aa(lp4674
g804
ag862
ag805
ag861
ag832
aa(lp4675
g832
ag839
ag836
ag833
ag828
aa(lp4676
g832
ag839
ag836
ag833
ag828
aa(lp4677
g832
ag839
ag836
ag833
ag828
aa(lp4678
g832
ag839
ag836
ag833
ag829
aa(lp4679
g836
ag832
ag829
ag833
ag858
aa(lp4680
g832
ag836
ag829
ag833
ag858
aa(lp4681
g832
ag836
ag829
ag833
ag839
aasg847
(g654
(g658
S'AR\xccR"A\xb1\xbf'
p4682
tp4683
Rp4684
g654
(g658
S'\xda\xa4A\x8dK\xbc\xba\xbf'
p4685
tp4686
Rp4687
tp4688
sg855
g856
ss.